ccopy_reg
_reconstructor
p0
(cdedupe.datamodel
DataModel
p1
c__builtin__
object
p2
Ntp3
Rp4
(dp5
S'primary_fields'
p6
(lp7
g0
(cdedupe.variables.string
StringType
p8
g2
Ntp9
Rp10
(dp11
S'predicates'
p12
(lp13
g0
(cdedupe.predicates
StringPredicate
p14
g2
Ntp15
Rp16
(dp17
S'_cached_hash'
p18
I49594795
sS'__name__'
p19
S'(wholeFieldPredicate, title)'
p20
sS'func'
p21
cdedupe.predicates
wholeFieldPredicate
p22
sS'field'
p23
S'title'
p24
sbag0
(g14
g2
Ntp25
Rp26
(dp27
g18
I-1633876259
sg19
S'(firstTokenPredicate, title)'
p28
sg21
cdedupe.predicates
firstTokenPredicate
p29
sg23
g24
sbag0
(g14
g2
Ntp30
Rp31
(dp32
g18
I-523547272
sg19
S'(commonIntegerPredicate, title)'
p33
sg21
cdedupe.predicates
commonIntegerPredicate
p34
sg23
g24
sbag0
(g14
g2
Ntp35
Rp36
(dp37
g18
I1683328537
sg19
S'(nearIntegersPredicate, title)'
p38
sg21
cdedupe.predicates
nearIntegersPredicate
p39
sg23
g24
sbag0
(g14
g2
Ntp40
Rp41
(dp42
g18
I1629619116
sg19
S'(firstIntegerPredicate, title)'
p43
sg21
cdedupe.predicates
firstIntegerPredicate
p44
sg23
g24
sbag0
(g14
g2
Ntp45
Rp46
(dp47
g18
I-592226272
sg19
S'(sameThreeCharStartPredicate, title)'
p48
sg21
cdedupe.predicates
sameThreeCharStartPredicate
p49
sg23
g24
sbag0
(g14
g2
Ntp50
Rp51
(dp52
g18
I-300370793
sg19
S'(sameFiveCharStartPredicate, title)'
p53
sg21
cdedupe.predicates
sameFiveCharStartPredicate
p54
sg23
g24
sbag0
(g14
g2
Ntp55
Rp56
(dp57
g18
I-1203404661
sg19
S'(sameSevenCharStartPredicate, title)'
p58
sg21
cdedupe.predicates
sameSevenCharStartPredicate
p59
sg23
g24
sbag0
(g14
g2
Ntp60
Rp61
(dp62
g18
I-491692140
sg19
S'(commonTwoTokens, title)'
p63
sg21
cdedupe.predicates
commonTwoTokens
p64
sg23
g24
sbag0
(g14
g2
Ntp65
Rp66
(dp67
g18
I-804264336
sg19
S'(commonThreeTokens, title)'
p68
sg21
cdedupe.predicates
commonThreeTokens
p69
sg23
g24
sbag0
(g14
g2
Ntp70
Rp71
(dp72
g18
I1537994277
sg19
S'(fingerprint, title)'
p73
sg21
cdedupe.predicates
fingerprint
p74
sg23
g24
sbag0
(g14
g2
Ntp75
Rp76
(dp77
g18
I1546637457
sg19
S'(oneGramFingerprint, title)'
p78
sg21
cdedupe.predicates
oneGramFingerprint
p79
sg23
g24
sbag0
(g14
g2
Ntp80
Rp81
(dp82
g18
I2087252139
sg19
S'(twoGramFingerprint, title)'
p83
sg21
cdedupe.predicates
twoGramFingerprint
p84
sg23
g24
sbag0
(g14
g2
Ntp85
Rp86
(dp87
g18
I-1372890427
sg19
S'(sortedAcronym, title)'
p88
sg21
cdedupe.predicates
sortedAcronym
p89
sg23
g24
sbag0
(g14
g2
Ntp90
Rp91
(dp92
g18
I-1009683320
sg19
S'(commonFourGram, title)'
p93
sg21
cdedupe.predicates
commonFourGram
p94
sg23
g24
sbag0
(g14
g2
Ntp95
Rp96
(dp97
g18
I-1813058937
sg19
S'(commonSixGram, title)'
p98
sg21
cdedupe.predicates
commonSixGram
p99
sg23
g24
sbag0
(g14
g2
Ntp100
Rp101
(dp102
g18
I-2109848355
sg19
S'(tokenFieldPredicate, title)'
p103
sg21
cdedupe.predicates
tokenFieldPredicate
p104
sg23
g24
sbag0
(g14
g2
Ntp105
Rp106
(dp107
g18
I-1360794925
sg19
S'(suffixArray, title)'
p108
sg21
cdedupe.predicates
suffixArray
p109
sg23
g24
sbag0
(g14
g2
Ntp110
Rp111
(dp112
g18
I-777209299
sg19
S'(doubleMetaphone, title)'
p113
sg21
cdedupe.predicates
doubleMetaphone
p114
sg23
g24
sbag0
(g14
g2
Ntp115
Rp116
(dp117
g18
I-653387606
sg19
S'(metaphoneToken, title)'
p118
sg21
cdedupe.predicates
metaphoneToken
p119
sg23
g24
sbag0
(cdedupe.predicates
TfidfNGramCanopyPredicate
p120
g2
Ntp121
Rp122
(dp123
S'threshold'
p124
F0.2
sg19
S'(0.2, title)'
p125
sg23
g24
sbag0
(g120
g2
Ntp126
Rp127
(dp128
g124
F0.4
sg19
S'(0.4, title)'
p129
sg23
g24
sbag0
(g120
g2
Ntp130
Rp131
(dp132
g124
F0.6
sg19
S'(0.6, title)'
p133
sg23
g24
sbag0
(g120
g2
Ntp134
Rp135
(dp136
g124
F0.8
sg19
S'(0.8, title)'
p137
sg23
g24
sbag0
(cdedupe.predicates
TfidfNGramSearchPredicate
p138
g2
Ntp139
Rp140
(dp141
g124
F0.2
sg19
S'(0.2, title)'
p142
sg23
g24
sbag0
(g138
g2
Ntp143
Rp144
(dp145
g124
F0.4
sg19
S'(0.4, title)'
p146
sg23
g24
sbag0
(g138
g2
Ntp147
Rp148
(dp149
g124
F0.6
sg19
S'(0.6, title)'
p150
sg23
g24
sbag0
(g138
g2
Ntp151
Rp152
(dp153
g124
F0.8
sg19
S'(0.8, title)'
p154
sg23
g24
sbag0
(cdedupe.predicates
TfidfTextCanopyPredicate
p155
g2
Ntp156
Rp157
(dp158
g124
F0.2
sg19
S'(0.2, title)'
p159
sg23
g24
sbag0
(g155
g2
Ntp160
Rp161
(dp162
g124
F0.4
sg19
S'(0.4, title)'
p163
sg23
g24
sbag0
(g155
g2
Ntp164
Rp165
(dp166
g124
F0.6
sg19
S'(0.6, title)'
p167
sg23
g24
sbag0
(g155
g2
Ntp168
Rp169
(dp170
g124
F0.8
sg19
S'(0.8, title)'
p171
sg23
g24
sbag0
(cdedupe.predicates
TfidfTextSearchPredicate
p172
g2
Ntp173
Rp174
(dp175
g124
F0.2
sg19
S'(0.2, title)'
p176
sg23
g24
sbag0
(g172
g2
Ntp177
Rp178
(dp179
g124
F0.4
sg19
S'(0.4, title)'
p180
sg23
g24
sbag0
(g172
g2
Ntp181
Rp182
(dp183
g124
F0.6
sg19
S'(0.6, title)'
p184
sg23
g24
sbag0
(g172
g2
Ntp185
Rp186
(dp187
g124
F0.8
sg19
S'(0.8, title)'
p188
sg23
g24
sbag0
(cdedupe.predicates
LevenshteinCanopyPredicate
p189
g2
Ntp190
Rp191
(dp192
g124
I1
sg19
S'(1, title)'
p193
sg23
g24
sbag0
(g189
g2
Ntp194
Rp195
(dp196
g124
I2
sg19
S'(2, title)'
p197
sg23
g24
sbag0
(g189
g2
Ntp198
Rp199
(dp200
g124
I3
sg19
S'(3, title)'
p201
sg23
g24
sbag0
(g189
g2
Ntp202
Rp203
(dp204
g124
I4
sg19
S'(4, title)'
p205
sg23
g24
sbag0
(cdedupe.predicates
LevenshteinSearchPredicate
p206
g2
Ntp207
Rp208
(dp209
g124
I1
sg19
S'(1, title)'
p210
sg23
g24
sbag0
(g206
g2
Ntp211
Rp212
(dp213
g124
I2
sg19
S'(2, title)'
p214
sg23
g24
sbag0
(g206
g2
Ntp215
Rp216
(dp217
g124
I3
sg19
S'(3, title)'
p218
sg23
g24
sbag0
(g206
g2
Ntp219
Rp220
(dp221
g124
I4
sg19
S'(4, title)'
p222
sg23
g24
sbasg23
g24
sS'name'
p223
S'(title: String)'
p224
sS'has_missing'
p225
I00
sS'comparator'
p226
caffinegap.affinegap
normalizedAffineGapDistance
p227
sbag0
(g8
g2
Ntp228
Rp229
(dp230
g12
(lp231
g0
(g14
g2
Ntp232
Rp233
(dp234
g18
I-278548590
sg19
S'(wholeFieldPredicate, buyer)'
p235
sg21
g22
sg23
S'buyer'
p236
sbag0
(g14
g2
Ntp237
Rp238
(dp239
g18
I150509372
sg19
S'(firstTokenPredicate, buyer)'
p240
sg21
g29
sg23
g236
sbag0
(g14
g2
Ntp241
Rp242
(dp243
g18
I196155273
sg19
S'(commonIntegerPredicate, buyer)'
p244
sg21
g34
sg23
g236
sbag0
(g14
g2
Ntp245
Rp246
(dp247
g18
I1201319392
sg19
S'(nearIntegersPredicate, buyer)'
p248
sg21
g39
sg23
g236
sbag0
(g14
g2
Ntp249
Rp250
(dp251
g18
I796344109
sg19
S'(firstIntegerPredicate, buyer)'
p252
sg21
g44
sg23
g236
sbag0
(g14
g2
Ntp253
Rp254
(dp255
g18
I-1368468255
sg19
S'(sameThreeCharStartPredicate, buyer)'
p256
sg21
g49
sg23
g236
sbag0
(g14
g2
Ntp257
Rp258
(dp259
g18
I-1389646570
sg19
S'(sameFiveCharStartPredicate, buyer)'
p260
sg21
g54
sg23
g236
sbag0
(g14
g2
Ntp261
Rp262
(dp263
g18
I226713106
sg19
S'(sameSevenCharStartPredicate, buyer)'
p264
sg21
g59
sg23
g236
sbag0
(g14
g2
Ntp265
Rp266
(dp267
g18
I-1039465275
sg19
S'(commonTwoTokens, buyer)'
p268
sg21
g64
sg23
g236
sbag0
(g14
g2
Ntp269
Rp270
(dp271
g18
I-449312607
sg19
S'(commonThreeTokens, buyer)'
p272
sg21
g69
sg23
g236
sbag0
(g14
g2
Ntp273
Rp274
(dp275
g18
I-217991260
sg19
S'(fingerprint, buyer)'
p276
sg21
g74
sg23
g236
sbag0
(g14
g2
Ntp277
Rp278
(dp279
g18
I998864320
sg19
S'(oneGramFingerprint, buyer)'
p280
sg21
g79
sg23
g236
sbag0
(g14
g2
Ntp281
Rp282
(dp283
g18
I227506858
sg19
S'(twoGramFingerprint, buyer)'
p284
sg21
g84
sg23
g236
sbag0
(g14
g2
Ntp285
Rp286
(dp287
g18
I-528343524
sg19
S'(sortedAcronym, buyer)'
p288
sg21
g89
sg23
g236
sbag0
(g14
g2
Ntp289
Rp290
(dp291
g18
I1518974217
sg19
S'(commonFourGram, buyer)'
p292
sg21
g94
sg23
g236
sbag0
(g14
g2
Ntp293
Rp294
(dp295
g18
I715598598
sg19
S'(commonSixGram, buyer)'
p296
sg21
g99
sg23
g236
sbag0
(g14
g2
Ntp297
Rp298
(dp299
g18
I-325462724
sg19
S'(tokenFieldPredicate, buyer)'
p300
sg21
g104
sg23
g236
sbag0
(g14
g2
Ntp301
Rp302
(dp303
g18
I-1350929494
sg19
S'(suffixArray, buyer)'
p304
sg21
g109
sg23
g236
sbag0
(g14
g2
Ntp305
Rp306
(dp307
g18
I1726887772
sg19
S'(doubleMetaphone, buyer)'
p308
sg21
g114
sg23
g236
sbag0
(g14
g2
Ntp309
Rp310
(dp311
g18
I781043955
sg19
S'(metaphoneToken, buyer)'
p312
sg21
g119
sg23
g236
sbag0
(g120
g2
Ntp313
Rp314
(dp315
g124
F0.2
sg19
S'(0.2, buyer)'
p316
sg23
g236
sbag0
(g120
g2
Ntp317
Rp318
(dp319
g124
F0.4
sg19
S'(0.4, buyer)'
p320
sg23
g236
sbag0
(g120
g2
Ntp321
Rp322
(dp323
g124
F0.6
sg19
S'(0.6, buyer)'
p324
sg23
g236
sbag0
(g120
g2
Ntp325
Rp326
(dp327
g124
F0.8
sg19
S'(0.8, buyer)'
p328
sg23
g236
sbag0
(g138
g2
Ntp329
Rp330
(dp331
g124
F0.2
sg19
S'(0.2, buyer)'
p332
sg23
g236
sbag0
(g138
g2
Ntp333
Rp334
(dp335
g124
F0.4
sg19
S'(0.4, buyer)'
p336
sg23
g236
sbag0
(g138
g2
Ntp337
Rp338
(dp339
g124
F0.6
sg19
S'(0.6, buyer)'
p340
sg23
g236
sbag0
(g138
g2
Ntp341
Rp342
(dp343
g124
F0.8
sg19
S'(0.8, buyer)'
p344
sg23
g236
sbag0
(g155
g2
Ntp345
Rp346
(dp347
g124
F0.2
sg19
S'(0.2, buyer)'
p348
sg23
g236
sbag0
(g155
g2
Ntp349
Rp350
(dp351
g124
F0.4
sg19
S'(0.4, buyer)'
p352
sg23
g236
sbag0
(g155
g2
Ntp353
Rp354
(dp355
g124
F0.6
sg19
S'(0.6, buyer)'
p356
sg23
g236
sbag0
(g155
g2
Ntp357
Rp358
(dp359
g124
F0.8
sg19
S'(0.8, buyer)'
p360
sg23
g236
sbag0
(g172
g2
Ntp361
Rp362
(dp363
g124
F0.2
sg19
S'(0.2, buyer)'
p364
sg23
g236
sbag0
(g172
g2
Ntp365
Rp366
(dp367
g124
F0.4
sg19
S'(0.4, buyer)'
p368
sg23
g236
sbag0
(g172
g2
Ntp369
Rp370
(dp371
g124
F0.6
sg19
S'(0.6, buyer)'
p372
sg23
g236
sbag0
(g172
g2
Ntp373
Rp374
(dp375
g124
F0.8
sg19
S'(0.8, buyer)'
p376
sg23
g236
sbag0
(g189
g2
Ntp377
Rp378
(dp379
g124
I1
sg19
S'(1, buyer)'
p380
sg23
g236
sbag0
(g189
g2
Ntp381
Rp382
(dp383
g124
I2
sg19
S'(2, buyer)'
p384
sg23
g236
sbag0
(g189
g2
Ntp385
Rp386
(dp387
g124
I3
sg19
S'(3, buyer)'
p388
sg23
g236
sbag0
(g189
g2
Ntp389
Rp390
(dp391
g124
I4
sg19
S'(4, buyer)'
p392
sg23
g236
sbag0
(g206
g2
Ntp393
Rp394
(dp395
g124
I1
sg19
S'(1, buyer)'
p396
sg23
g236
sbag0
(g206
g2
Ntp397
Rp398
(dp399
g124
I2
sg19
S'(2, buyer)'
p400
sg23
g236
sbag0
(g206
g2
Ntp401
Rp402
(dp403
g124
I3
sg19
S'(3, buyer)'
p404
sg23
g236
sbag0
(g206
g2
Ntp405
Rp406
(dp407
g124
I4
sg19
S'(4, buyer)'
p408
sg23
g236
sbasg23
g236
sg223
S'(buyer: String)'
p409
sg225
I00
sg226
g227
sbag0
(g8
g2
Ntp410
Rp411
(dp412
g12
(lp413
g0
(g14
g2
Ntp414
Rp415
(dp416
g18
I214604545
sg19
S'(wholeFieldPredicate, email)'
p417
sg21
g22
sg23
S'email'
p418
sbag0
(g14
g2
Ntp419
Rp420
(dp421
g18
I-2103326301
sg19
S'(firstTokenPredicate, email)'
p422
sg21
g29
sg23
g418
sbag0
(g14
g2
Ntp423
Rp424
(dp425
g18
I-1993062266
sg19
S'(commonIntegerPredicate, email)'
p426
sg21
g34
sg23
g418
sbag0
(g14
g2
Ntp427
Rp428
(dp429
g18
I1437133363
sg19
S'(nearIntegersPredicate, email)'
p430
sg21
g39
sg23
g418
sbag0
(g14
g2
Ntp431
Rp432
(dp433
g18
I-171126094
sg19
S'(firstIntegerPredicate, email)'
p434
sg21
g44
sg23
g418
sbag0
(g14
g2
Ntp435
Rp436
(dp437
g18
I162279290
sg19
S'(sameThreeCharStartPredicate, email)'
p438
sg21
g49
sg23
g418
sbag0
(g14
g2
Ntp439
Rp440
(dp441
g18
I-1265033335
sg19
S'(sameFiveCharStartPredicate, email)'
p442
sg21
g54
sg23
g418
sbag0
(g14
g2
Ntp443
Rp444
(dp445
g18
I940654177
sg19
S'(sameSevenCharStartPredicate, email)'
p446
sg21
g59
sg23
g418
sbag0
(g14
g2
Ntp447
Rp448
(dp449
g18
I1579495822
sg19
S'(commonTwoTokens, email)'
p450
sg21
g64
sg23
g418
sbag0
(g14
g2
Ntp451
Rp452
(dp453
g18
I-470416658
sg19
S'(commonThreeTokens, email)'
p454
sg21
g69
sg23
g418
sbag0
(g14
g2
Ntp455
Rp456
(dp457
g18
I-2113093637
sg19
S'(fingerprint, email)'
p458
sg21
g74
sg23
g418
sbag0
(g14
g2
Ntp459
Rp460
(dp461
g18
I-677141877
sg19
S'(oneGramFingerprint, email)'
p462
sg21
g79
sg23
g418
sbag0
(g14
g2
Ntp463
Rp464
(dp465
g18
I-1505339835
sg19
S'(twoGramFingerprint, email)'
p466
sg21
g84
sg23
g418
sbag0
(g14
g2
Ntp467
Rp468
(dp469
g18
I2143571287
sg19
S'(sortedAcronym, email)'
p470
sg21
g89
sg23
g418
sbag0
(g14
g2
Ntp471
Rp472
(dp473
g18
I726800982
sg19
S'(commonFourGram, email)'
p474
sg21
g94
sg23
g418
sbag0
(g14
g2
Ntp475
Rp476
(dp477
g18
I-76574631
sg19
S'(commonSixGram, email)'
p478
sg21
g99
sg23
g418
sbag0
(g14
g2
Ntp479
Rp480
(dp481
g18
I1715668899
sg19
S'(tokenFieldPredicate, email)'
p482
sg21
g104
sg23
g418
sbag0
(g14
g2
Ntp483
Rp484
(dp485
g18
I2087246841
sg19
S'(suffixArray, email)'
p486
sg21
g109
sg23
g418
sbag0
(g14
g2
Ntp487
Rp488
(dp489
g18
I1090083235
sg19
S'(doubleMetaphone, email)'
p490
sg21
g114
sg23
g418
sbag0
(g14
g2
Ntp491
Rp492
(dp493
g18
I-831684296
sg19
S'(metaphoneToken, email)'
p494
sg21
g119
sg23
g418
sbag0
(g120
g2
Ntp495
Rp496
(dp497
g124
F0.2
sg19
S'(0.2, email)'
p498
sg23
g418
sbag0
(g120
g2
Ntp499
Rp500
(dp501
g124
F0.4
sg19
S'(0.4, email)'
p502
sg23
g418
sbag0
(g120
g2
Ntp503
Rp504
(dp505
g124
F0.6
sg19
S'(0.6, email)'
p506
sg23
g418
sbag0
(g120
g2
Ntp507
Rp508
(dp509
g124
F0.8
sg19
S'(0.8, email)'
p510
sg23
g418
sbag0
(g138
g2
Ntp511
Rp512
(dp513
g124
F0.2
sg19
S'(0.2, email)'
p514
sg23
g418
sbag0
(g138
g2
Ntp515
Rp516
(dp517
g124
F0.4
sg19
S'(0.4, email)'
p518
sg23
g418
sbag0
(g138
g2
Ntp519
Rp520
(dp521
g124
F0.6
sg19
S'(0.6, email)'
p522
sg23
g418
sbag0
(g138
g2
Ntp523
Rp524
(dp525
g124
F0.8
sg19
S'(0.8, email)'
p526
sg23
g418
sbag0
(g155
g2
Ntp527
Rp528
(dp529
g124
F0.2
sg19
S'(0.2, email)'
p530
sg23
g418
sbag0
(g155
g2
Ntp531
Rp532
(dp533
g124
F0.4
sg19
S'(0.4, email)'
p534
sg23
g418
sbag0
(g155
g2
Ntp535
Rp536
(dp537
g124
F0.6
sg19
S'(0.6, email)'
p538
sg23
g418
sbag0
(g155
g2
Ntp539
Rp540
(dp541
g124
F0.8
sg19
S'(0.8, email)'
p542
sg23
g418
sbag0
(g172
g2
Ntp543
Rp544
(dp545
g124
F0.2
sg19
S'(0.2, email)'
p546
sg23
g418
sbag0
(g172
g2
Ntp547
Rp548
(dp549
g124
F0.4
sg19
S'(0.4, email)'
p550
sg23
g418
sbag0
(g172
g2
Ntp551
Rp552
(dp553
g124
F0.6
sg19
S'(0.6, email)'
p554
sg23
g418
sbag0
(g172
g2
Ntp555
Rp556
(dp557
g124
F0.8
sg19
S'(0.8, email)'
p558
sg23
g418
sbag0
(g189
g2
Ntp559
Rp560
(dp561
g124
I1
sg19
S'(1, email)'
p562
sg23
g418
sbag0
(g189
g2
Ntp563
Rp564
(dp565
g124
I2
sg19
S'(2, email)'
p566
sg23
g418
sbag0
(g189
g2
Ntp567
Rp568
(dp569
g124
I3
sg19
S'(3, email)'
p570
sg23
g418
sbag0
(g189
g2
Ntp571
Rp572
(dp573
g124
I4
sg19
S'(4, email)'
p574
sg23
g418
sbag0
(g206
g2
Ntp575
Rp576
(dp577
g124
I1
sg19
S'(1, email)'
p578
sg23
g418
sbag0
(g206
g2
Ntp579
Rp580
(dp581
g124
I2
sg19
S'(2, email)'
p582
sg23
g418
sbag0
(g206
g2
Ntp583
Rp584
(dp585
g124
I3
sg19
S'(3, email)'
p586
sg23
g418
sbag0
(g206
g2
Ntp587
Rp588
(dp589
g124
I4
sg19
S'(4, email)'
p590
sg23
g418
sbasg23
g418
sg223
S'(email: String)'
p591
sg225
I00
sg226
g227
sbasS'_variables'
p592
(lp593
g10
ag229
ag411
asS'_missing_field_indices'
p594
(lp595
sS'_derived_start'
p596
I3
sS'_interaction_indices'
p597
(lp598
sb.ccopy_reg
_reconstructor
p0
(crlr.lr
RegularizedLogisticRegression
p1
c__builtin__
object
p2
Ntp3
Rp4
(dp5
S'alpha'
p6
I1
sS'bias'
p7
cnumpy.core.multiarray
scalar
p8
(cnumpy
dtype
p9
(S'f8'
p10
I0
I1
tp11
Rp12
(I3
S'<'
p13
NNNI-1
I-1
I0
tp14
bS'\x9a \x94DE_\n\xc0'
p15
tp16
Rp17
sS'num_cores'
p18
I0
sS'cv'
p19
I3
sS'weights'
p20
cnumpy.core.multiarray
_reconstruct
p21
(cnumpy
ndarray
p22
(I0
tp23
S'b'
p24
tp25
Rp26
(I1
(L3L
tp27
g12
I00
S'\xffY%\xe3D\x19\xe0\xbf\x19@\x19\x0bY\xd6\xee?qn\xaea\x97`\xde\xbf'
p28
tp29
bsb.(ccopy_reg
_reconstructor
p0
(cdedupe.predicates
CompoundPredicate
p1
c__builtin__
tuple
p2
(g0
(cdedupe.predicates
TfidfNGramCanopyPredicate
p3
c__builtin__
object
p4
Ntp5
Rp6
(dp7
S'threshold'
p8
F0.4
sS'__name__'
p9
S'(0.4, title)'
p10
sS'field'
p11
S'title'
p12
sbg0
(cdedupe.predicates
TfidfTextCanopyPredicate
p13
g4
Ntp14
Rp15
(dp16
g8
F0.8
sg9
S'(0.8, title)'
p17
sg11
g12
sbtp18
tp19
Rp20
(dp21
S'count'
p22
F1368.0
sbtp23
.