ccopy_reg
_reconstructor
p0
(cdedupe.datamodel
DataModel
p1
c__builtin__
object
p2
Ntp3
Rp4
(dp5
S'primary_fields'
p6
(lp7
g0
(cdedupe.variables.string
StringType
p8
g2
Ntp9
Rp10
(dp11
S'predicates'
p12
(lp13
g0
(cdedupe.predicates
StringPredicate
p14
g2
Ntp15
Rp16
(dp17
S'_cached_hash'
p18
I49594795
sS'__name__'
p19
S'(wholeFieldPredicate, title)'
p20
sS'func'
p21
cdedupe.predicates
wholeFieldPredicate
p22
sS'field'
p23
S'title'
p24
sbag0
(g14
g2
Ntp25
Rp26
(dp27
g18
I-1633876259
sg19
S'(firstTokenPredicate, title)'
p28
sg21
cdedupe.predicates
firstTokenPredicate
p29
sg23
g24
sbag0
(g14
g2
Ntp30
Rp31
(dp32
g18
I-523547272
sg19
S'(commonIntegerPredicate, title)'
p33
sg21
cdedupe.predicates
commonIntegerPredicate
p34
sg23
g24
sbag0
(g14
g2
Ntp35
Rp36
(dp37
g18
I1683328537
sg19
S'(nearIntegersPredicate, title)'
p38
sg21
cdedupe.predicates
nearIntegersPredicate
p39
sg23
g24
sbag0
(g14
g2
Ntp40
Rp41
(dp42
g18
I1629619116
sg19
S'(firstIntegerPredicate, title)'
p43
sg21
cdedupe.predicates
firstIntegerPredicate
p44
sg23
g24
sbag0
(g14
g2
Ntp45
Rp46
(dp47
g18
I-592226272
sg19
S'(sameThreeCharStartPredicate, title)'
p48
sg21
cdedupe.predicates
sameThreeCharStartPredicate
p49
sg23
g24
sbag0
(g14
g2
Ntp50
Rp51
(dp52
g18
I-300370793
sg19
S'(sameFiveCharStartPredicate, title)'
p53
sg21
cdedupe.predicates
sameFiveCharStartPredicate
p54
sg23
g24
sbag0
(g14
g2
Ntp55
Rp56
(dp57
g18
I-1203404661
sg19
S'(sameSevenCharStartPredicate, title)'
p58
sg21
cdedupe.predicates
sameSevenCharStartPredicate
p59
sg23
g24
sbag0
(g14
g2
Ntp60
Rp61
(dp62
g18
I-491692140
sg19
S'(commonTwoTokens, title)'
p63
sg21
cdedupe.predicates
commonTwoTokens
p64
sg23
g24
sbag0
(g14
g2
Ntp65
Rp66
(dp67
g18
I-804264336
sg19
S'(commonThreeTokens, title)'
p68
sg21
cdedupe.predicates
commonThreeTokens
p69
sg23
g24
sbag0
(g14
g2
Ntp70
Rp71
(dp72
g18
I1537994277
sg19
S'(fingerprint, title)'
p73
sg21
cdedupe.predicates
fingerprint
p74
sg23
g24
sbag0
(g14
g2
Ntp75
Rp76
(dp77
g18
I1546637457
sg19
S'(oneGramFingerprint, title)'
p78
sg21
cdedupe.predicates
oneGramFingerprint
p79
sg23
g24
sbag0
(g14
g2
Ntp80
Rp81
(dp82
g18
I2087252139
sg19
S'(twoGramFingerprint, title)'
p83
sg21
cdedupe.predicates
twoGramFingerprint
p84
sg23
g24
sbag0
(g14
g2
Ntp85
Rp86
(dp87
g18
I-1372890427
sg19
S'(sortedAcronym, title)'
p88
sg21
cdedupe.predicates
sortedAcronym
p89
sg23
g24
sbag0
(g14
g2
Ntp90
Rp91
(dp92
g18
I-1009683320
sg19
S'(commonFourGram, title)'
p93
sg21
cdedupe.predicates
commonFourGram
p94
sg23
g24
sbag0
(g14
g2
Ntp95
Rp96
(dp97
g18
I-1813058937
sg19
S'(commonSixGram, title)'
p98
sg21
cdedupe.predicates
commonSixGram
p99
sg23
g24
sbag0
(g14
g2
Ntp100
Rp101
(dp102
g18
I-2109848355
sg19
S'(tokenFieldPredicate, title)'
p103
sg21
cdedupe.predicates
tokenFieldPredicate
p104
sg23
g24
sbag0
(g14
g2
Ntp105
Rp106
(dp107
g18
I-1360794925
sg19
S'(suffixArray, title)'
p108
sg21
cdedupe.predicates
suffixArray
p109
sg23
g24
sbag0
(g14
g2
Ntp110
Rp111
(dp112
g18
I-777209299
sg19
S'(doubleMetaphone, title)'
p113
sg21
cdedupe.predicates
doubleMetaphone
p114
sg23
g24
sbag0
(g14
g2
Ntp115
Rp116
(dp117
g18
I-653387606
sg19
S'(metaphoneToken, title)'
p118
sg21
cdedupe.predicates
metaphoneToken
p119
sg23
g24
sbag0
(cdedupe.predicates
TfidfNGramCanopyPredicate
p120
g2
Ntp121
Rp122
(dp123
S'threshold'
p124
F0.2
sg19
S'(0.2, title)'
p125
sg23
g24
sbag0
(g120
g2
Ntp126
Rp127
(dp128
g124
F0.4
sg19
S'(0.4, title)'
p129
sg23
g24
sbag0
(g120
g2
Ntp130
Rp131
(dp132
g124
F0.6
sg19
S'(0.6, title)'
p133
sg23
g24
sbag0
(g120
g2
Ntp134
Rp135
(dp136
g124
F0.8
sg19
S'(0.8, title)'
p137
sg23
g24
sbag0
(cdedupe.predicates
TfidfNGramSearchPredicate
p138
g2
Ntp139
Rp140
(dp141
g124
F0.2
sg19
S'(0.2, title)'
p142
sg23
g24
sbag0
(g138
g2
Ntp143
Rp144
(dp145
g124
F0.4
sg19
S'(0.4, title)'
p146
sg23
g24
sbag0
(g138
g2
Ntp147
Rp148
(dp149
g124
F0.6
sg19
S'(0.6, title)'
p150
sg23
g24
sbag0
(g138
g2
Ntp151
Rp152
(dp153
g124
F0.8
sg19
S'(0.8, title)'
p154
sg23
g24
sbag0
(cdedupe.predicates
TfidfTextCanopyPredicate
p155
g2
Ntp156
Rp157
(dp158
g124
F0.2
sg19
S'(0.2, title)'
p159
sg23
g24
sbag0
(g155
g2
Ntp160
Rp161
(dp162
g124
F0.4
sg19
S'(0.4, title)'
p163
sg23
g24
sbag0
(g155
g2
Ntp164
Rp165
(dp166
g124
F0.6
sg19
S'(0.6, title)'
p167
sg23
g24
sbag0
(g155
g2
Ntp168
Rp169
(dp170
g124
F0.8
sg19
S'(0.8, title)'
p171
sg23
g24
sbag0
(cdedupe.predicates
TfidfTextSearchPredicate
p172
g2
Ntp173
Rp174
(dp175
g124
F0.2
sg19
S'(0.2, title)'
p176
sg23
g24
sbag0
(g172
g2
Ntp177
Rp178
(dp179
g124
F0.4
sg19
S'(0.4, title)'
p180
sg23
g24
sbag0
(g172
g2
Ntp181
Rp182
(dp183
g124
F0.6
sg19
S'(0.6, title)'
p184
sg23
g24
sbag0
(g172
g2
Ntp185
Rp186
(dp187
g124
F0.8
sg19
S'(0.8, title)'
p188
sg23
g24
sbag0
(cdedupe.predicates
LevenshteinCanopyPredicate
p189
g2
Ntp190
Rp191
(dp192
g124
I1
sg19
S'(1, title)'
p193
sg23
g24
sbag0
(g189
g2
Ntp194
Rp195
(dp196
g124
I2
sg19
S'(2, title)'
p197
sg23
g24
sbag0
(g189
g2
Ntp198
Rp199
(dp200
g124
I3
sg19
S'(3, title)'
p201
sg23
g24
sbag0
(g189
g2
Ntp202
Rp203
(dp204
g124
I4
sg19
S'(4, title)'
p205
sg23
g24
sbag0
(cdedupe.predicates
LevenshteinSearchPredicate
p206
g2
Ntp207
Rp208
(dp209
g124
I1
sg19
S'(1, title)'
p210
sg23
g24
sbag0
(g206
g2
Ntp211
Rp212
(dp213
g124
I2
sg19
S'(2, title)'
p214
sg23
g24
sbag0
(g206
g2
Ntp215
Rp216
(dp217
g124
I3
sg19
S'(3, title)'
p218
sg23
g24
sbag0
(g206
g2
Ntp219
Rp220
(dp221
g124
I4
sg19
S'(4, title)'
p222
sg23
g24
sbasg23
g24
sS'name'
p223
S'(title: String)'
p224
sS'has_missing'
p225
I00
sS'comparator'
p226
caffinegap.affinegap
normalizedAffineGapDistance
p227
sbag0
(cdedupe.variables.price
PriceType
p228
g2
Ntp229
Rp230
(dp231
g12
(lp232
g0
(cdedupe.predicates
SimplePredicate
p233
g2
Ntp234
Rp235
(dp236
g18
I-1557573916
sg19
S'(orderOfMagnitude, value)'
p237
sg21
cdedupe.predicates
orderOfMagnitude
p238
sg23
S'value'
p239
sbag0
(g233
g2
Ntp240
Rp241
(dp242
g18
I-1898576808
sg19
S'(wholeFieldPredicate, value)'
p243
sg21
g22
sg23
g239
sbag0
(g233
g2
Ntp244
Rp245
(dp246
g18
I-831579693
sg19
S'(roundTo1, value)'
p247
sg21
cdedupe.predicates
roundTo1
p248
sg23
g239
sbasg23
g239
sg223
S'(value: Price)'
p249
sg225
I00
sbag0
(cdedupe.variables.string
TextType
p250
g2
Ntp251
Rp252
(dp253
g12
(lp254
g0
(g14
g2
Ntp255
Rp256
(dp257
g18
I-931910175
sg19
S'(wholeFieldPredicate, description)'
p258
sg21
g22
sg23
S'description'
p259
sbag0
(g14
g2
Ntp260
Rp261
(dp262
g18
I-554315981
sg19
S'(firstTokenPredicate, description)'
p263
sg21
g29
sg23
g259
sbag0
(g14
g2
Ntp264
Rp265
(dp266
g18
I32937390
sg19
S'(commonIntegerPredicate, description)'
p267
sg21
g34
sg23
g259
sbag0
(g14
g2
Ntp268
Rp269
(dp270
g18
I762672503
sg19
S'(nearIntegersPredicate, description)'
p271
sg21
g39
sg23
g259
sbag0
(g14
g2
Ntp272
Rp273
(dp274
g18
I1531693834
sg19
S'(firstIntegerPredicate, description)'
p275
sg21
g44
sg23
g259
sbag0
(g14
g2
Ntp276
Rp277
(dp278
g18
I1765294670
sg19
S'(sameThreeCharStartPredicate, description)'
p279
sg21
g49
sg23
g259
sbag0
(g14
g2
Ntp280
Rp281
(dp282
g18
I264260581
sg19
S'(sameFiveCharStartPredicate, description)'
p283
sg21
g54
sg23
g259
sbag0
(g14
g2
Ntp284
Rp285
(dp286
g18
I-995010991
sg19
S'(sameSevenCharStartPredicate, description)'
p287
sg21
g59
sg23
g259
sbag0
(g14
g2
Ntp288
Rp289
(dp290
g18
I-842450254
sg19
S'(commonTwoTokens, description)'
p291
sg21
g64
sg23
g259
sbag0
(g14
g2
Ntp292
Rp293
(dp294
g18
I-1544254906
sg19
S'(commonThreeTokens, description)'
p295
sg21
g69
sg23
g259
sbag0
(g14
g2
Ntp296
Rp297
(dp298
g18
I359267259
sg19
S'(fingerprint, description)'
p299
sg21
g74
sg23
g259
sbag0
(g14
g2
Ntp300
Rp301
(dp302
g18
I-2142141521
sg19
S'(oneGramFingerprint, description)'
p303
sg21
g79
sg23
g259
sbag0
(g14
g2
Ntp304
Rp305
(dp306
g18
I434854473
sg19
S'(twoGramFingerprint, description)'
p307
sg21
g84
sg23
g259
sbag0
(g14
g2
Ntp308
Rp309
(dp310
g18
I-805085925
sg19
S'(sortedAcronym, description)'
p311
sg21
g89
sg23
g259
sbag0
(g155
g2
Ntp312
Rp313
(dp314
g124
F0.2
sg19
S'(0.2, description)'
p315
sg23
g259
sbag0
(g155
g2
Ntp316
Rp317
(dp318
g124
F0.4
sg19
S'(0.4, description)'
p319
sg23
g259
sbag0
(g155
g2
Ntp320
Rp321
(dp322
g124
F0.6
sg19
S'(0.6, description)'
p323
sg23
g259
sbag0
(g155
g2
Ntp324
Rp325
(dp326
g124
F0.8
sg19
S'(0.8, description)'
p327
sg23
g259
sbag0
(g172
g2
Ntp328
Rp329
(dp330
g124
F0.2
sg19
S'(0.2, description)'
p331
sg23
g259
sbag0
(g172
g2
Ntp332
Rp333
(dp334
g124
F0.4
sg19
S'(0.4, description)'
p335
sg23
g259
sbag0
(g172
g2
Ntp336
Rp337
(dp338
g124
F0.6
sg19
S'(0.6, description)'
p339
sg23
g259
sbag0
(g172
g2
Ntp340
Rp341
(dp342
g124
F0.8
sg19
S'(0.8, description)'
p343
sg23
g259
sbag0
(g189
g2
Ntp344
Rp345
(dp346
g124
I1
sg19
S'(1, description)'
p347
sg23
g259
sbag0
(g189
g2
Ntp348
Rp349
(dp350
g124
I2
sg19
S'(2, description)'
p351
sg23
g259
sbag0
(g189
g2
Ntp352
Rp353
(dp354
g124
I3
sg19
S'(3, description)'
p355
sg23
g259
sbag0
(g189
g2
Ntp356
Rp357
(dp358
g124
I4
sg19
S'(4, description)'
p359
sg23
g259
sbag0
(g206
g2
Ntp360
Rp361
(dp362
g124
I1
sg19
S'(1, description)'
p363
sg23
g259
sbag0
(g206
g2
Ntp364
Rp365
(dp366
g124
I2
sg19
S'(2, description)'
p367
sg23
g259
sbag0
(g206
g2
Ntp368
Rp369
(dp370
g124
I3
sg19
S'(3, description)'
p371
sg23
g259
sbag0
(g206
g2
Ntp372
Rp373
(dp374
g124
I4
sg19
S'(4, description)'
p375
sg23
g259
sbasg23
g259
sg223
S'(description: Text)'
p376
sg225
I00
sg226
g0
(csimplecosine.cosine
CosineTextSimilarity
p377
g2
Ntp378
Rp379
(dp380
S'default_score'
p381
F1.0
sS'vectors'
p382
(dp383
sS'doc_freq'
p384
(dp385
sbsbag0
(g8
g2
Ntp386
Rp387
(dp388
g12
(lp389
g0
(g14
g2
Ntp390
Rp391
(dp392
g18
I-278548590
sg19
S'(wholeFieldPredicate, buyer)'
p393
sg21
g22
sg23
S'buyer'
p394
sbag0
(g14
g2
Ntp395
Rp396
(dp397
g18
I150509372
sg19
S'(firstTokenPredicate, buyer)'
p398
sg21
g29
sg23
g394
sbag0
(g14
g2
Ntp399
Rp400
(dp401
g18
I196155273
sg19
S'(commonIntegerPredicate, buyer)'
p402
sg21
g34
sg23
g394
sbag0
(g14
g2
Ntp403
Rp404
(dp405
g18
I1201319392
sg19
S'(nearIntegersPredicate, buyer)'
p406
sg21
g39
sg23
g394
sbag0
(g14
g2
Ntp407
Rp408
(dp409
g18
I796344109
sg19
S'(firstIntegerPredicate, buyer)'
p410
sg21
g44
sg23
g394
sbag0
(g14
g2
Ntp411
Rp412
(dp413
g18
I-1368468255
sg19
S'(sameThreeCharStartPredicate, buyer)'
p414
sg21
g49
sg23
g394
sbag0
(g14
g2
Ntp415
Rp416
(dp417
g18
I-1389646570
sg19
S'(sameFiveCharStartPredicate, buyer)'
p418
sg21
g54
sg23
g394
sbag0
(g14
g2
Ntp419
Rp420
(dp421
g18
I226713106
sg19
S'(sameSevenCharStartPredicate, buyer)'
p422
sg21
g59
sg23
g394
sbag0
(g14
g2
Ntp423
Rp424
(dp425
g18
I-1039465275
sg19
S'(commonTwoTokens, buyer)'
p426
sg21
g64
sg23
g394
sbag0
(g14
g2
Ntp427
Rp428
(dp429
g18
I-449312607
sg19
S'(commonThreeTokens, buyer)'
p430
sg21
g69
sg23
g394
sbag0
(g14
g2
Ntp431
Rp432
(dp433
g18
I-217991260
sg19
S'(fingerprint, buyer)'
p434
sg21
g74
sg23
g394
sbag0
(g14
g2
Ntp435
Rp436
(dp437
g18
I998864320
sg19
S'(oneGramFingerprint, buyer)'
p438
sg21
g79
sg23
g394
sbag0
(g14
g2
Ntp439
Rp440
(dp441
g18
I227506858
sg19
S'(twoGramFingerprint, buyer)'
p442
sg21
g84
sg23
g394
sbag0
(g14
g2
Ntp443
Rp444
(dp445
g18
I-528343524
sg19
S'(sortedAcronym, buyer)'
p446
sg21
g89
sg23
g394
sbag0
(g14
g2
Ntp447
Rp448
(dp449
g18
I1518974217
sg19
S'(commonFourGram, buyer)'
p450
sg21
g94
sg23
g394
sbag0
(g14
g2
Ntp451
Rp452
(dp453
g18
I715598598
sg19
S'(commonSixGram, buyer)'
p454
sg21
g99
sg23
g394
sbag0
(g14
g2
Ntp455
Rp456
(dp457
g18
I-325462724
sg19
S'(tokenFieldPredicate, buyer)'
p458
sg21
g104
sg23
g394
sbag0
(g14
g2
Ntp459
Rp460
(dp461
g18
I-1350929494
sg19
S'(suffixArray, buyer)'
p462
sg21
g109
sg23
g394
sbag0
(g14
g2
Ntp463
Rp464
(dp465
g18
I1726887772
sg19
S'(doubleMetaphone, buyer)'
p466
sg21
g114
sg23
g394
sbag0
(g14
g2
Ntp467
Rp468
(dp469
g18
I781043955
sg19
S'(metaphoneToken, buyer)'
p470
sg21
g119
sg23
g394
sbag0
(g120
g2
Ntp471
Rp472
(dp473
g124
F0.2
sg19
S'(0.2, buyer)'
p474
sg23
g394
sbag0
(g120
g2
Ntp475
Rp476
(dp477
g124
F0.4
sg19
S'(0.4, buyer)'
p478
sg23
g394
sbag0
(g120
g2
Ntp479
Rp480
(dp481
g124
F0.6
sg19
S'(0.6, buyer)'
p482
sg23
g394
sbag0
(g120
g2
Ntp483
Rp484
(dp485
g124
F0.8
sg19
S'(0.8, buyer)'
p486
sg23
g394
sbag0
(g138
g2
Ntp487
Rp488
(dp489
g124
F0.2
sg19
S'(0.2, buyer)'
p490
sg23
g394
sbag0
(g138
g2
Ntp491
Rp492
(dp493
g124
F0.4
sg19
S'(0.4, buyer)'
p494
sg23
g394
sbag0
(g138
g2
Ntp495
Rp496
(dp497
g124
F0.6
sg19
S'(0.6, buyer)'
p498
sg23
g394
sbag0
(g138
g2
Ntp499
Rp500
(dp501
g124
F0.8
sg19
S'(0.8, buyer)'
p502
sg23
g394
sbag0
(g155
g2
Ntp503
Rp504
(dp505
g124
F0.2
sg19
S'(0.2, buyer)'
p506
sg23
g394
sbag0
(g155
g2
Ntp507
Rp508
(dp509
g124
F0.4
sg19
S'(0.4, buyer)'
p510
sg23
g394
sbag0
(g155
g2
Ntp511
Rp512
(dp513
g124
F0.6
sg19
S'(0.6, buyer)'
p514
sg23
g394
sbag0
(g155
g2
Ntp515
Rp516
(dp517
g124
F0.8
sg19
S'(0.8, buyer)'
p518
sg23
g394
sbag0
(g172
g2
Ntp519
Rp520
(dp521
g124
F0.2
sg19
S'(0.2, buyer)'
p522
sg23
g394
sbag0
(g172
g2
Ntp523
Rp524
(dp525
g124
F0.4
sg19
S'(0.4, buyer)'
p526
sg23
g394
sbag0
(g172
g2
Ntp527
Rp528
(dp529
g124
F0.6
sg19
S'(0.6, buyer)'
p530
sg23
g394
sbag0
(g172
g2
Ntp531
Rp532
(dp533
g124
F0.8
sg19
S'(0.8, buyer)'
p534
sg23
g394
sbag0
(g189
g2
Ntp535
Rp536
(dp537
g124
I1
sg19
S'(1, buyer)'
p538
sg23
g394
sbag0
(g189
g2
Ntp539
Rp540
(dp541
g124
I2
sg19
S'(2, buyer)'
p542
sg23
g394
sbag0
(g189
g2
Ntp543
Rp544
(dp545
g124
I3
sg19
S'(3, buyer)'
p546
sg23
g394
sbag0
(g189
g2
Ntp547
Rp548
(dp549
g124
I4
sg19
S'(4, buyer)'
p550
sg23
g394
sbag0
(g206
g2
Ntp551
Rp552
(dp553
g124
I1
sg19
S'(1, buyer)'
p554
sg23
g394
sbag0
(g206
g2
Ntp555
Rp556
(dp557
g124
I2
sg19
S'(2, buyer)'
p558
sg23
g394
sbag0
(g206
g2
Ntp559
Rp560
(dp561
g124
I3
sg19
S'(3, buyer)'
p562
sg23
g394
sbag0
(g206
g2
Ntp563
Rp564
(dp565
g124
I4
sg19
S'(4, buyer)'
p566
sg23
g394
sbasg23
g394
sg223
S'(buyer: String)'
p567
sg225
I00
sg226
g227
sbag0
(g8
g2
Ntp568
Rp569
(dp570
g12
(lp571
g0
(g14
g2
Ntp572
Rp573
(dp574
g18
I-958155415
sg19
S'(wholeFieldPredicate, postcode)'
p575
sg21
g22
sg23
S'postcode'
p576
sbag0
(g14
g2
Ntp577
Rp578
(dp579
g18
I1273026719
sg19
S'(firstTokenPredicate, postcode)'
p580
sg21
g29
sg23
g576
sbag0
(g14
g2
Ntp581
Rp582
(dp583
g18
I-1600625468
sg19
S'(commonIntegerPredicate, postcode)'
p584
sg21
g34
sg23
g576
sbag0
(g14
g2
Ntp585
Rp586
(dp587
g18
I1201306939
sg19
S'(nearIntegersPredicate, postcode)'
p588
sg21
g39
sg23
g576
sbag0
(g14
g2
Ntp589
Rp590
(dp591
g18
I1743928288
sg19
S'(firstIntegerPredicate, postcode)'
p592
sg21
g44
sg23
g576
sbag0
(g14
g2
Ntp593
Rp594
(dp595
g18
I233354536
sg19
S'(sameThreeCharStartPredicate, postcode)'
p596
sg21
g49
sg23
g576
sbag0
(g14
g2
Ntp597
Rp598
(dp599
g18
I358174277
sg19
S'(sameFiveCharStartPredicate, postcode)'
p600
sg21
g54
sg23
g576
sbag0
(g14
g2
Ntp601
Rp602
(dp603
g18
I-179408487
sg19
S'(sameSevenCharStartPredicate, postcode)'
p604
sg21
g59
sg23
g576
sbag0
(g14
g2
Ntp605
Rp606
(dp607
g18
I1762118916
sg19
S'(commonTwoTokens, postcode)'
p608
sg21
g64
sg23
g576
sbag0
(g14
g2
Ntp609
Rp610
(dp611
g18
I560126260
sg19
S'(commonThreeTokens, postcode)'
p612
sg21
g69
sg23
g576
sbag0
(g14
g2
Ntp613
Rp614
(dp615
g18
I-1574409769
sg19
S'(fingerprint, postcode)'
p616
sg21
g74
sg23
g576
sbag0
(g14
g2
Ntp617
Rp618
(dp619
g18
I-83986425
sg19
S'(oneGramFingerprint, postcode)'
p620
sg21
g79
sg23
g576
sbag0
(g14
g2
Ntp621
Rp622
(dp623
g18
I1234346409
sg19
S'(twoGramFingerprint, postcode)'
p624
sg21
g84
sg23
g576
sbag0
(g14
g2
Ntp625
Rp626
(dp627
g18
I-2122436209
sg19
S'(sortedAcronym, postcode)'
p628
sg21
g89
sg23
g576
sbag0
(g14
g2
Ntp629
Rp630
(dp631
g18
I537366964
sg19
S'(commonFourGram, postcode)'
p632
sg21
g94
sg23
g576
sbag0
(g14
g2
Ntp633
Rp634
(dp635
g18
I-1010596939
sg19
S'(commonSixGram, postcode)'
p636
sg21
g99
sg23
g576
sbag0
(g14
g2
Ntp637
Rp638
(dp639
g18
I-625417569
sg19
S'(tokenFieldPredicate, postcode)'
p640
sg21
g104
sg23
g576
sbag0
(g14
g2
Ntp641
Rp642
(dp643
g18
I-1092120607
sg19
S'(suffixArray, postcode)'
p644
sg21
g109
sg23
g576
sbag0
(g14
g2
Ntp645
Rp646
(dp647
g18
I-90641601
sg19
S'(doubleMetaphone, postcode)'
p648
sg21
g114
sg23
g576
sbag0
(g14
g2
Ntp649
Rp650
(dp651
g18
I662400750
sg19
S'(metaphoneToken, postcode)'
p652
sg21
g119
sg23
g576
sbag0
(g120
g2
Ntp653
Rp654
(dp655
g124
F0.2
sg19
S'(0.2, postcode)'
p656
sg23
g576
sbag0
(g120
g2
Ntp657
Rp658
(dp659
g124
F0.4
sg19
S'(0.4, postcode)'
p660
sg23
g576
sbag0
(g120
g2
Ntp661
Rp662
(dp663
g124
F0.6
sg19
S'(0.6, postcode)'
p664
sg23
g576
sbag0
(g120
g2
Ntp665
Rp666
(dp667
g124
F0.8
sg19
S'(0.8, postcode)'
p668
sg23
g576
sbag0
(g138
g2
Ntp669
Rp670
(dp671
g124
F0.2
sg19
S'(0.2, postcode)'
p672
sg23
g576
sbag0
(g138
g2
Ntp673
Rp674
(dp675
g124
F0.4
sg19
S'(0.4, postcode)'
p676
sg23
g576
sbag0
(g138
g2
Ntp677
Rp678
(dp679
g124
F0.6
sg19
S'(0.6, postcode)'
p680
sg23
g576
sbag0
(g138
g2
Ntp681
Rp682
(dp683
g124
F0.8
sg19
S'(0.8, postcode)'
p684
sg23
g576
sbag0
(g155
g2
Ntp685
Rp686
(dp687
g124
F0.2
sg19
S'(0.2, postcode)'
p688
sg23
g576
sbag0
(g155
g2
Ntp689
Rp690
(dp691
g124
F0.4
sg19
S'(0.4, postcode)'
p692
sg23
g576
sbag0
(g155
g2
Ntp693
Rp694
(dp695
g124
F0.6
sg19
S'(0.6, postcode)'
p696
sg23
g576
sbag0
(g155
g2
Ntp697
Rp698
(dp699
g124
F0.8
sg19
S'(0.8, postcode)'
p700
sg23
g576
sbag0
(g172
g2
Ntp701
Rp702
(dp703
g124
F0.2
sg19
S'(0.2, postcode)'
p704
sg23
g576
sbag0
(g172
g2
Ntp705
Rp706
(dp707
g124
F0.4
sg19
S'(0.4, postcode)'
p708
sg23
g576
sbag0
(g172
g2
Ntp709
Rp710
(dp711
g124
F0.6
sg19
S'(0.6, postcode)'
p712
sg23
g576
sbag0
(g172
g2
Ntp713
Rp714
(dp715
g124
F0.8
sg19
S'(0.8, postcode)'
p716
sg23
g576
sbag0
(g189
g2
Ntp717
Rp718
(dp719
g124
I1
sg19
S'(1, postcode)'
p720
sg23
g576
sbag0
(g189
g2
Ntp721
Rp722
(dp723
g124
I2
sg19
S'(2, postcode)'
p724
sg23
g576
sbag0
(g189
g2
Ntp725
Rp726
(dp727
g124
I3
sg19
S'(3, postcode)'
p728
sg23
g576
sbag0
(g189
g2
Ntp729
Rp730
(dp731
g124
I4
sg19
S'(4, postcode)'
p732
sg23
g576
sbag0
(g206
g2
Ntp733
Rp734
(dp735
g124
I1
sg19
S'(1, postcode)'
p736
sg23
g576
sbag0
(g206
g2
Ntp737
Rp738
(dp739
g124
I2
sg19
S'(2, postcode)'
p740
sg23
g576
sbag0
(g206
g2
Ntp741
Rp742
(dp743
g124
I3
sg19
S'(3, postcode)'
p744
sg23
g576
sbag0
(g206
g2
Ntp745
Rp746
(dp747
g124
I4
sg19
S'(4, postcode)'
p748
sg23
g576
sbasg23
g576
sg223
S'(postcode: String)'
p749
sg225
I00
sg226
g227
sbag0
(g8
g2
Ntp750
Rp751
(dp752
g12
(lp753
g0
(g14
g2
Ntp754
Rp755
(dp756
g18
I214604545
sg19
S'(wholeFieldPredicate, email)'
p757
sg21
g22
sg23
S'email'
p758
sbag0
(g14
g2
Ntp759
Rp760
(dp761
g18
I-2103326301
sg19
S'(firstTokenPredicate, email)'
p762
sg21
g29
sg23
g758
sbag0
(g14
g2
Ntp763
Rp764
(dp765
g18
I-1993062266
sg19
S'(commonIntegerPredicate, email)'
p766
sg21
g34
sg23
g758
sbag0
(g14
g2
Ntp767
Rp768
(dp769
g18
I1437133363
sg19
S'(nearIntegersPredicate, email)'
p770
sg21
g39
sg23
g758
sbag0
(g14
g2
Ntp771
Rp772
(dp773
g18
I-171126094
sg19
S'(firstIntegerPredicate, email)'
p774
sg21
g44
sg23
g758
sbag0
(g14
g2
Ntp775
Rp776
(dp777
g18
I162279290
sg19
S'(sameThreeCharStartPredicate, email)'
p778
sg21
g49
sg23
g758
sbag0
(g14
g2
Ntp779
Rp780
(dp781
g18
I-1265033335
sg19
S'(sameFiveCharStartPredicate, email)'
p782
sg21
g54
sg23
g758
sbag0
(g14
g2
Ntp783
Rp784
(dp785
g18
I940654177
sg19
S'(sameSevenCharStartPredicate, email)'
p786
sg21
g59
sg23
g758
sbag0
(g14
g2
Ntp787
Rp788
(dp789
g18
I1579495822
sg19
S'(commonTwoTokens, email)'
p790
sg21
g64
sg23
g758
sbag0
(g14
g2
Ntp791
Rp792
(dp793
g18
I-470416658
sg19
S'(commonThreeTokens, email)'
p794
sg21
g69
sg23
g758
sbag0
(g14
g2
Ntp795
Rp796
(dp797
g18
I-2113093637
sg19
S'(fingerprint, email)'
p798
sg21
g74
sg23
g758
sbag0
(g14
g2
Ntp799
Rp800
(dp801
g18
I-677141877
sg19
S'(oneGramFingerprint, email)'
p802
sg21
g79
sg23
g758
sbag0
(g14
g2
Ntp803
Rp804
(dp805
g18
I-1505339835
sg19
S'(twoGramFingerprint, email)'
p806
sg21
g84
sg23
g758
sbag0
(g14
g2
Ntp807
Rp808
(dp809
g18
I2143571287
sg19
S'(sortedAcronym, email)'
p810
sg21
g89
sg23
g758
sbag0
(g14
g2
Ntp811
Rp812
(dp813
g18
I726800982
sg19
S'(commonFourGram, email)'
p814
sg21
g94
sg23
g758
sbag0
(g14
g2
Ntp815
Rp816
(dp817
g18
I-76574631
sg19
S'(commonSixGram, email)'
p818
sg21
g99
sg23
g758
sbag0
(g14
g2
Ntp819
Rp820
(dp821
g18
I1715668899
sg19
S'(tokenFieldPredicate, email)'
p822
sg21
g104
sg23
g758
sbag0
(g14
g2
Ntp823
Rp824
(dp825
g18
I2087246841
sg19
S'(suffixArray, email)'
p826
sg21
g109
sg23
g758
sbag0
(g14
g2
Ntp827
Rp828
(dp829
g18
I1090083235
sg19
S'(doubleMetaphone, email)'
p830
sg21
g114
sg23
g758
sbag0
(g14
g2
Ntp831
Rp832
(dp833
g18
I-831684296
sg19
S'(metaphoneToken, email)'
p834
sg21
g119
sg23
g758
sbag0
(g120
g2
Ntp835
Rp836
(dp837
g124
F0.2
sg19
S'(0.2, email)'
p838
sg23
g758
sbag0
(g120
g2
Ntp839
Rp840
(dp841
g124
F0.4
sg19
S'(0.4, email)'
p842
sg23
g758
sbag0
(g120
g2
Ntp843
Rp844
(dp845
g124
F0.6
sg19
S'(0.6, email)'
p846
sg23
g758
sbag0
(g120
g2
Ntp847
Rp848
(dp849
g124
F0.8
sg19
S'(0.8, email)'
p850
sg23
g758
sbag0
(g138
g2
Ntp851
Rp852
(dp853
g124
F0.2
sg19
S'(0.2, email)'
p854
sg23
g758
sbag0
(g138
g2
Ntp855
Rp856
(dp857
g124
F0.4
sg19
S'(0.4, email)'
p858
sg23
g758
sbag0
(g138
g2
Ntp859
Rp860
(dp861
g124
F0.6
sg19
S'(0.6, email)'
p862
sg23
g758
sbag0
(g138
g2
Ntp863
Rp864
(dp865
g124
F0.8
sg19
S'(0.8, email)'
p866
sg23
g758
sbag0
(g155
g2
Ntp867
Rp868
(dp869
g124
F0.2
sg19
S'(0.2, email)'
p870
sg23
g758
sbag0
(g155
g2
Ntp871
Rp872
(dp873
g124
F0.4
sg19
S'(0.4, email)'
p874
sg23
g758
sbag0
(g155
g2
Ntp875
Rp876
(dp877
g124
F0.6
sg19
S'(0.6, email)'
p878
sg23
g758
sbag0
(g155
g2
Ntp879
Rp880
(dp881
g124
F0.8
sg19
S'(0.8, email)'
p882
sg23
g758
sbag0
(g172
g2
Ntp883
Rp884
(dp885
g124
F0.2
sg19
S'(0.2, email)'
p886
sg23
g758
sbag0
(g172
g2
Ntp887
Rp888
(dp889
g124
F0.4
sg19
S'(0.4, email)'
p890
sg23
g758
sbag0
(g172
g2
Ntp891
Rp892
(dp893
g124
F0.6
sg19
S'(0.6, email)'
p894
sg23
g758
sbag0
(g172
g2
Ntp895
Rp896
(dp897
g124
F0.8
sg19
S'(0.8, email)'
p898
sg23
g758
sbag0
(g189
g2
Ntp899
Rp900
(dp901
g124
I1
sg19
S'(1, email)'
p902
sg23
g758
sbag0
(g189
g2
Ntp903
Rp904
(dp905
g124
I2
sg19
S'(2, email)'
p906
sg23
g758
sbag0
(g189
g2
Ntp907
Rp908
(dp909
g124
I3
sg19
S'(3, email)'
p910
sg23
g758
sbag0
(g189
g2
Ntp911
Rp912
(dp913
g124
I4
sg19
S'(4, email)'
p914
sg23
g758
sbag0
(g206
g2
Ntp915
Rp916
(dp917
g124
I1
sg19
S'(1, email)'
p918
sg23
g758
sbag0
(g206
g2
Ntp919
Rp920
(dp921
g124
I2
sg19
S'(2, email)'
p922
sg23
g758
sbag0
(g206
g2
Ntp923
Rp924
(dp925
g124
I3
sg19
S'(3, email)'
p926
sg23
g758
sbag0
(g206
g2
Ntp927
Rp928
(dp929
g124
I4
sg19
S'(4, email)'
p930
sg23
g758
sbasg23
g758
sg223
S'(email: String)'
p931
sg225
I00
sg226
g227
sbasS'_variables'
p932
(lp933
g10
ag230
ag252
ag387
ag569
ag751
asS'_missing_field_indices'
p934
(lp935
sS'_derived_start'
p936
I6
sS'_interaction_indices'
p937
(lp938
sb.ccopy_reg
_reconstructor
p0
(crlr.lr
RegularizedLogisticRegression
p1
c__builtin__
object
p2
Ntp3
Rp4
(dp5
S'alpha'
p6
I1
sS'bias'
p7
cnumpy.core.multiarray
scalar
p8
(cnumpy
dtype
p9
(S'f8'
p10
I0
I1
tp11
Rp12
(I3
S'<'
p13
NNNI-1
I-1
I0
tp14
bS'\xd0S\x00%\x8b\xb3\x03@'
p15
tp16
Rp17
sS'num_cores'
p18
I0
sS'cv'
p19
I3
sS'weights'
p20
cnumpy.core.multiarray
_reconstruct
p21
(cnumpy
ndarray
p22
(I0
tp23
S'b'
p24
tp25
Rp26
(I1
(L6L
tp27
g12
I00
S'\xcb\xf3{\xf0f\x95\xfa\xbf\x81\xab\x07)\xdfw\x9a>\xf7;\x97\xc9\xeb\x04\xb7?\xd1\xb8\xaa\x96o\x1e\xc2\xbf\x82\xc4\xe2WO]\xe4\xbf\xe6`\r\x19\xb4\x82\xd7\xbf'
p28
tp29
bsb.(ccopy_reg
_reconstructor
p0
(cdedupe.predicates
CompoundPredicate
p1
c__builtin__
tuple
p2
(g0
(cdedupe.predicates
TfidfNGramCanopyPredicate
p3
c__builtin__
object
p4
Ntp5
Rp6
(dp7
S'threshold'
p8
F0.8
sS'__name__'
p9
S'(0.8, title)'
p10
sS'field'
p11
S'title'
p12
sbg0
(cdedupe.predicates
TfidfTextCanopyPredicate
p13
g4
Ntp14
Rp15
(dp16
g8
F0.8
sg9
S'(0.8, title)'
p17
sg11
g12
sbtp18
tp19
Rp20
(dp21
S'count'
p22
F1403.0
sbtp23
.