ccopy_reg
_reconstructor
p0
(cdedupe.datamodel
DataModel
p1
c__builtin__
object
p2
Ntp3
Rp4
(dp5
S'primary_fields'
p6
(lp7
g0
(cdedupe.variables.string
StringType
p8
g2
Ntp9
Rp10
(dp11
S'predicates'
p12
(lp13
g0
(cdedupe.predicates
StringPredicate
p14
g2
Ntp15
Rp16
(dp17
S'_cached_hash'
p18
I49594795
sS'__name__'
p19
S'(wholeFieldPredicate, title)'
p20
sS'func'
p21
cdedupe.predicates
wholeFieldPredicate
p22
sS'field'
p23
S'title'
p24
sbag0
(g14
g2
Ntp25
Rp26
(dp27
g18
I-1633876259
sg19
S'(firstTokenPredicate, title)'
p28
sg21
cdedupe.predicates
firstTokenPredicate
p29
sg23
g24
sbag0
(g14
g2
Ntp30
Rp31
(dp32
g18
I-523547272
sg19
S'(commonIntegerPredicate, title)'
p33
sg21
cdedupe.predicates
commonIntegerPredicate
p34
sg23
g24
sbag0
(g14
g2
Ntp35
Rp36
(dp37
g18
I1683328537
sg19
S'(nearIntegersPredicate, title)'
p38
sg21
cdedupe.predicates
nearIntegersPredicate
p39
sg23
g24
sbag0
(g14
g2
Ntp40
Rp41
(dp42
g18
I1629619116
sg19
S'(firstIntegerPredicate, title)'
p43
sg21
cdedupe.predicates
firstIntegerPredicate
p44
sg23
g24
sbag0
(g14
g2
Ntp45
Rp46
(dp47
g18
I-592226272
sg19
S'(sameThreeCharStartPredicate, title)'
p48
sg21
cdedupe.predicates
sameThreeCharStartPredicate
p49
sg23
g24
sbag0
(g14
g2
Ntp50
Rp51
(dp52
g18
I-300370793
sg19
S'(sameFiveCharStartPredicate, title)'
p53
sg21
cdedupe.predicates
sameFiveCharStartPredicate
p54
sg23
g24
sbag0
(g14
g2
Ntp55
Rp56
(dp57
g18
I-1203404661
sg19
S'(sameSevenCharStartPredicate, title)'
p58
sg21
cdedupe.predicates
sameSevenCharStartPredicate
p59
sg23
g24
sbag0
(g14
g2
Ntp60
Rp61
(dp62
g18
I-491692140
sg19
S'(commonTwoTokens, title)'
p63
sg21
cdedupe.predicates
commonTwoTokens
p64
sg23
g24
sbag0
(g14
g2
Ntp65
Rp66
(dp67
g18
I-804264336
sg19
S'(commonThreeTokens, title)'
p68
sg21
cdedupe.predicates
commonThreeTokens
p69
sg23
g24
sbag0
(g14
g2
Ntp70
Rp71
(dp72
g18
I1537994277
sg19
S'(fingerprint, title)'
p73
sg21
cdedupe.predicates
fingerprint
p74
sg23
g24
sbag0
(g14
g2
Ntp75
Rp76
(dp77
g18
I1546637457
sg19
S'(oneGramFingerprint, title)'
p78
sg21
cdedupe.predicates
oneGramFingerprint
p79
sg23
g24
sbag0
(g14
g2
Ntp80
Rp81
(dp82
g18
I2087252139
sg19
S'(twoGramFingerprint, title)'
p83
sg21
cdedupe.predicates
twoGramFingerprint
p84
sg23
g24
sbag0
(g14
g2
Ntp85
Rp86
(dp87
g18
I-1372890427
sg19
S'(sortedAcronym, title)'
p88
sg21
cdedupe.predicates
sortedAcronym
p89
sg23
g24
sbag0
(g14
g2
Ntp90
Rp91
(dp92
g18
I-1009683320
sg19
S'(commonFourGram, title)'
p93
sg21
cdedupe.predicates
commonFourGram
p94
sg23
g24
sbag0
(g14
g2
Ntp95
Rp96
(dp97
g18
I-1813058937
sg19
S'(commonSixGram, title)'
p98
sg21
cdedupe.predicates
commonSixGram
p99
sg23
g24
sbag0
(g14
g2
Ntp100
Rp101
(dp102
g18
I-2109848355
sg19
S'(tokenFieldPredicate, title)'
p103
sg21
cdedupe.predicates
tokenFieldPredicate
p104
sg23
g24
sbag0
(g14
g2
Ntp105
Rp106
(dp107
g18
I-1360794925
sg19
S'(suffixArray, title)'
p108
sg21
cdedupe.predicates
suffixArray
p109
sg23
g24
sbag0
(g14
g2
Ntp110
Rp111
(dp112
g18
I-777209299
sg19
S'(doubleMetaphone, title)'
p113
sg21
cdedupe.predicates
doubleMetaphone
p114
sg23
g24
sbag0
(g14
g2
Ntp115
Rp116
(dp117
g18
I-653387606
sg19
S'(metaphoneToken, title)'
p118
sg21
cdedupe.predicates
metaphoneToken
p119
sg23
g24
sbag0
(cdedupe.predicates
TfidfNGramCanopyPredicate
p120
g2
Ntp121
Rp122
(dp123
S'threshold'
p124
F0.2
sg19
S'(0.2, title)'
p125
sg23
g24
sbag0
(g120
g2
Ntp126
Rp127
(dp128
g124
F0.4
sg19
S'(0.4, title)'
p129
sg23
g24
sbag0
(g120
g2
Ntp130
Rp131
(dp132
g124
F0.6
sg19
S'(0.6, title)'
p133
sg23
g24
sbag0
(g120
g2
Ntp134
Rp135
(dp136
g124
F0.8
sg19
S'(0.8, title)'
p137
sg23
g24
sbag0
(cdedupe.predicates
TfidfNGramSearchPredicate
p138
g2
Ntp139
Rp140
(dp141
g124
F0.2
sg19
S'(0.2, title)'
p142
sg23
g24
sbag0
(g138
g2
Ntp143
Rp144
(dp145
g124
F0.4
sg19
S'(0.4, title)'
p146
sg23
g24
sbag0
(g138
g2
Ntp147
Rp148
(dp149
g124
F0.6
sg19
S'(0.6, title)'
p150
sg23
g24
sbag0
(g138
g2
Ntp151
Rp152
(dp153
g124
F0.8
sg19
S'(0.8, title)'
p154
sg23
g24
sbag0
(cdedupe.predicates
TfidfTextCanopyPredicate
p155
g2
Ntp156
Rp157
(dp158
g124
F0.2
sg19
S'(0.2, title)'
p159
sg23
g24
sbag0
(g155
g2
Ntp160
Rp161
(dp162
g124
F0.4
sg19
S'(0.4, title)'
p163
sg23
g24
sbag0
(g155
g2
Ntp164
Rp165
(dp166
g124
F0.6
sg19
S'(0.6, title)'
p167
sg23
g24
sbag0
(g155
g2
Ntp168
Rp169
(dp170
g124
F0.8
sg19
S'(0.8, title)'
p171
sg23
g24
sbag0
(cdedupe.predicates
TfidfTextSearchPredicate
p172
g2
Ntp173
Rp174
(dp175
g124
F0.2
sg19
S'(0.2, title)'
p176
sg23
g24
sbag0
(g172
g2
Ntp177
Rp178
(dp179
g124
F0.4
sg19
S'(0.4, title)'
p180
sg23
g24
sbag0
(g172
g2
Ntp181
Rp182
(dp183
g124
F0.6
sg19
S'(0.6, title)'
p184
sg23
g24
sbag0
(g172
g2
Ntp185
Rp186
(dp187
g124
F0.8
sg19
S'(0.8, title)'
p188
sg23
g24
sbag0
(cdedupe.predicates
LevenshteinCanopyPredicate
p189
g2
Ntp190
Rp191
(dp192
g124
I1
sg19
S'(1, title)'
p193
sg23
g24
sbag0
(g189
g2
Ntp194
Rp195
(dp196
g124
I2
sg19
S'(2, title)'
p197
sg23
g24
sbag0
(g189
g2
Ntp198
Rp199
(dp200
g124
I3
sg19
S'(3, title)'
p201
sg23
g24
sbag0
(g189
g2
Ntp202
Rp203
(dp204
g124
I4
sg19
S'(4, title)'
p205
sg23
g24
sbag0
(cdedupe.predicates
LevenshteinSearchPredicate
p206
g2
Ntp207
Rp208
(dp209
g124
I1
sg19
S'(1, title)'
p210
sg23
g24
sbag0
(g206
g2
Ntp211
Rp212
(dp213
g124
I2
sg19
S'(2, title)'
p214
sg23
g24
sbag0
(g206
g2
Ntp215
Rp216
(dp217
g124
I3
sg19
S'(3, title)'
p218
sg23
g24
sbag0
(g206
g2
Ntp219
Rp220
(dp221
g124
I4
sg19
S'(4, title)'
p222
sg23
g24
sbasg23
g24
sS'name'
p223
S'(title: String)'
p224
sS'has_missing'
p225
I00
sS'comparator'
p226
caffinegap.affinegap
normalizedAffineGapDistance
p227
sbag0
(cdedupe.variables.price
PriceType
p228
g2
Ntp229
Rp230
(dp231
g12
(lp232
g0
(cdedupe.predicates
SimplePredicate
p233
g2
Ntp234
Rp235
(dp236
g18
I-1557573916
sg19
S'(orderOfMagnitude, value)'
p237
sg21
cdedupe.predicates
orderOfMagnitude
p238
sg23
S'value'
p239
sbag0
(g233
g2
Ntp240
Rp241
(dp242
g18
I-1898576808
sg19
S'(wholeFieldPredicate, value)'
p243
sg21
g22
sg23
g239
sbag0
(g233
g2
Ntp244
Rp245
(dp246
g18
I-831579693
sg19
S'(roundTo1, value)'
p247
sg21
cdedupe.predicates
roundTo1
p248
sg23
g239
sbasg23
g239
sg223
S'(value: Price)'
p249
sg225
I00
sbag0
(g8
g2
Ntp250
Rp251
(dp252
g12
(lp253
g0
(g14
g2
Ntp254
Rp255
(dp256
g18
I-278548590
sg19
S'(wholeFieldPredicate, buyer)'
p257
sg21
g22
sg23
S'buyer'
p258
sbag0
(g14
g2
Ntp259
Rp260
(dp261
g18
I150509372
sg19
S'(firstTokenPredicate, buyer)'
p262
sg21
g29
sg23
g258
sbag0
(g14
g2
Ntp263
Rp264
(dp265
g18
I196155273
sg19
S'(commonIntegerPredicate, buyer)'
p266
sg21
g34
sg23
g258
sbag0
(g14
g2
Ntp267
Rp268
(dp269
g18
I1201319392
sg19
S'(nearIntegersPredicate, buyer)'
p270
sg21
g39
sg23
g258
sbag0
(g14
g2
Ntp271
Rp272
(dp273
g18
I796344109
sg19
S'(firstIntegerPredicate, buyer)'
p274
sg21
g44
sg23
g258
sbag0
(g14
g2
Ntp275
Rp276
(dp277
g18
I-1368468255
sg19
S'(sameThreeCharStartPredicate, buyer)'
p278
sg21
g49
sg23
g258
sbag0
(g14
g2
Ntp279
Rp280
(dp281
g18
I-1389646570
sg19
S'(sameFiveCharStartPredicate, buyer)'
p282
sg21
g54
sg23
g258
sbag0
(g14
g2
Ntp283
Rp284
(dp285
g18
I226713106
sg19
S'(sameSevenCharStartPredicate, buyer)'
p286
sg21
g59
sg23
g258
sbag0
(g14
g2
Ntp287
Rp288
(dp289
g18
I-1039465275
sg19
S'(commonTwoTokens, buyer)'
p290
sg21
g64
sg23
g258
sbag0
(g14
g2
Ntp291
Rp292
(dp293
g18
I-449312607
sg19
S'(commonThreeTokens, buyer)'
p294
sg21
g69
sg23
g258
sbag0
(g14
g2
Ntp295
Rp296
(dp297
g18
I-217991260
sg19
S'(fingerprint, buyer)'
p298
sg21
g74
sg23
g258
sbag0
(g14
g2
Ntp299
Rp300
(dp301
g18
I998864320
sg19
S'(oneGramFingerprint, buyer)'
p302
sg21
g79
sg23
g258
sbag0
(g14
g2
Ntp303
Rp304
(dp305
g18
I227506858
sg19
S'(twoGramFingerprint, buyer)'
p306
sg21
g84
sg23
g258
sbag0
(g14
g2
Ntp307
Rp308
(dp309
g18
I-528343524
sg19
S'(sortedAcronym, buyer)'
p310
sg21
g89
sg23
g258
sbag0
(g14
g2
Ntp311
Rp312
(dp313
g18
I1518974217
sg19
S'(commonFourGram, buyer)'
p314
sg21
g94
sg23
g258
sbag0
(g14
g2
Ntp315
Rp316
(dp317
g18
I715598598
sg19
S'(commonSixGram, buyer)'
p318
sg21
g99
sg23
g258
sbag0
(g14
g2
Ntp319
Rp320
(dp321
g18
I-325462724
sg19
S'(tokenFieldPredicate, buyer)'
p322
sg21
g104
sg23
g258
sbag0
(g14
g2
Ntp323
Rp324
(dp325
g18
I-1350929494
sg19
S'(suffixArray, buyer)'
p326
sg21
g109
sg23
g258
sbag0
(g14
g2
Ntp327
Rp328
(dp329
g18
I1726887772
sg19
S'(doubleMetaphone, buyer)'
p330
sg21
g114
sg23
g258
sbag0
(g14
g2
Ntp331
Rp332
(dp333
g18
I781043955
sg19
S'(metaphoneToken, buyer)'
p334
sg21
g119
sg23
g258
sbag0
(g120
g2
Ntp335
Rp336
(dp337
g124
F0.2
sg19
S'(0.2, buyer)'
p338
sg23
g258
sbag0
(g120
g2
Ntp339
Rp340
(dp341
g124
F0.4
sg19
S'(0.4, buyer)'
p342
sg23
g258
sbag0
(g120
g2
Ntp343
Rp344
(dp345
g124
F0.6
sg19
S'(0.6, buyer)'
p346
sg23
g258
sbag0
(g120
g2
Ntp347
Rp348
(dp349
g124
F0.8
sg19
S'(0.8, buyer)'
p350
sg23
g258
sbag0
(g138
g2
Ntp351
Rp352
(dp353
g124
F0.2
sg19
S'(0.2, buyer)'
p354
sg23
g258
sbag0
(g138
g2
Ntp355
Rp356
(dp357
g124
F0.4
sg19
S'(0.4, buyer)'
p358
sg23
g258
sbag0
(g138
g2
Ntp359
Rp360
(dp361
g124
F0.6
sg19
S'(0.6, buyer)'
p362
sg23
g258
sbag0
(g138
g2
Ntp363
Rp364
(dp365
g124
F0.8
sg19
S'(0.8, buyer)'
p366
sg23
g258
sbag0
(g155
g2
Ntp367
Rp368
(dp369
g124
F0.2
sg19
S'(0.2, buyer)'
p370
sg23
g258
sbag0
(g155
g2
Ntp371
Rp372
(dp373
g124
F0.4
sg19
S'(0.4, buyer)'
p374
sg23
g258
sbag0
(g155
g2
Ntp375
Rp376
(dp377
g124
F0.6
sg19
S'(0.6, buyer)'
p378
sg23
g258
sbag0
(g155
g2
Ntp379
Rp380
(dp381
g124
F0.8
sg19
S'(0.8, buyer)'
p382
sg23
g258
sbag0
(g172
g2
Ntp383
Rp384
(dp385
g124
F0.2
sg19
S'(0.2, buyer)'
p386
sg23
g258
sbag0
(g172
g2
Ntp387
Rp388
(dp389
g124
F0.4
sg19
S'(0.4, buyer)'
p390
sg23
g258
sbag0
(g172
g2
Ntp391
Rp392
(dp393
g124
F0.6
sg19
S'(0.6, buyer)'
p394
sg23
g258
sbag0
(g172
g2
Ntp395
Rp396
(dp397
g124
F0.8
sg19
S'(0.8, buyer)'
p398
sg23
g258
sbag0
(g189
g2
Ntp399
Rp400
(dp401
g124
I1
sg19
S'(1, buyer)'
p402
sg23
g258
sbag0
(g189
g2
Ntp403
Rp404
(dp405
g124
I2
sg19
S'(2, buyer)'
p406
sg23
g258
sbag0
(g189
g2
Ntp407
Rp408
(dp409
g124
I3
sg19
S'(3, buyer)'
p410
sg23
g258
sbag0
(g189
g2
Ntp411
Rp412
(dp413
g124
I4
sg19
S'(4, buyer)'
p414
sg23
g258
sbag0
(g206
g2
Ntp415
Rp416
(dp417
g124
I1
sg19
S'(1, buyer)'
p418
sg23
g258
sbag0
(g206
g2
Ntp419
Rp420
(dp421
g124
I2
sg19
S'(2, buyer)'
p422
sg23
g258
sbag0
(g206
g2
Ntp423
Rp424
(dp425
g124
I3
sg19
S'(3, buyer)'
p426
sg23
g258
sbag0
(g206
g2
Ntp427
Rp428
(dp429
g124
I4
sg19
S'(4, buyer)'
p430
sg23
g258
sbasg23
g258
sg223
S'(buyer: String)'
p431
sg225
I00
sg226
g227
sbag0
(g8
g2
Ntp432
Rp433
(dp434
g12
(lp435
g0
(g14
g2
Ntp436
Rp437
(dp438
g18
I214604545
sg19
S'(wholeFieldPredicate, email)'
p439
sg21
g22
sg23
S'email'
p440
sbag0
(g14
g2
Ntp441
Rp442
(dp443
g18
I-2103326301
sg19
S'(firstTokenPredicate, email)'
p444
sg21
g29
sg23
g440
sbag0
(g14
g2
Ntp445
Rp446
(dp447
g18
I-1993062266
sg19
S'(commonIntegerPredicate, email)'
p448
sg21
g34
sg23
g440
sbag0
(g14
g2
Ntp449
Rp450
(dp451
g18
I1437133363
sg19
S'(nearIntegersPredicate, email)'
p452
sg21
g39
sg23
g440
sbag0
(g14
g2
Ntp453
Rp454
(dp455
g18
I-171126094
sg19
S'(firstIntegerPredicate, email)'
p456
sg21
g44
sg23
g440
sbag0
(g14
g2
Ntp457
Rp458
(dp459
g18
I162279290
sg19
S'(sameThreeCharStartPredicate, email)'
p460
sg21
g49
sg23
g440
sbag0
(g14
g2
Ntp461
Rp462
(dp463
g18
I-1265033335
sg19
S'(sameFiveCharStartPredicate, email)'
p464
sg21
g54
sg23
g440
sbag0
(g14
g2
Ntp465
Rp466
(dp467
g18
I940654177
sg19
S'(sameSevenCharStartPredicate, email)'
p468
sg21
g59
sg23
g440
sbag0
(g14
g2
Ntp469
Rp470
(dp471
g18
I1579495822
sg19
S'(commonTwoTokens, email)'
p472
sg21
g64
sg23
g440
sbag0
(g14
g2
Ntp473
Rp474
(dp475
g18
I-470416658
sg19
S'(commonThreeTokens, email)'
p476
sg21
g69
sg23
g440
sbag0
(g14
g2
Ntp477
Rp478
(dp479
g18
I-2113093637
sg19
S'(fingerprint, email)'
p480
sg21
g74
sg23
g440
sbag0
(g14
g2
Ntp481
Rp482
(dp483
g18
I-677141877
sg19
S'(oneGramFingerprint, email)'
p484
sg21
g79
sg23
g440
sbag0
(g14
g2
Ntp485
Rp486
(dp487
g18
I-1505339835
sg19
S'(twoGramFingerprint, email)'
p488
sg21
g84
sg23
g440
sbag0
(g14
g2
Ntp489
Rp490
(dp491
g18
I2143571287
sg19
S'(sortedAcronym, email)'
p492
sg21
g89
sg23
g440
sbag0
(g14
g2
Ntp493
Rp494
(dp495
g18
I726800982
sg19
S'(commonFourGram, email)'
p496
sg21
g94
sg23
g440
sbag0
(g14
g2
Ntp497
Rp498
(dp499
g18
I-76574631
sg19
S'(commonSixGram, email)'
p500
sg21
g99
sg23
g440
sbag0
(g14
g2
Ntp501
Rp502
(dp503
g18
I1715668899
sg19
S'(tokenFieldPredicate, email)'
p504
sg21
g104
sg23
g440
sbag0
(g14
g2
Ntp505
Rp506
(dp507
g18
I2087246841
sg19
S'(suffixArray, email)'
p508
sg21
g109
sg23
g440
sbag0
(g14
g2
Ntp509
Rp510
(dp511
g18
I1090083235
sg19
S'(doubleMetaphone, email)'
p512
sg21
g114
sg23
g440
sbag0
(g14
g2
Ntp513
Rp514
(dp515
g18
I-831684296
sg19
S'(metaphoneToken, email)'
p516
sg21
g119
sg23
g440
sbag0
(g120
g2
Ntp517
Rp518
(dp519
g124
F0.2
sg19
S'(0.2, email)'
p520
sg23
g440
sbag0
(g120
g2
Ntp521
Rp522
(dp523
g124
F0.4
sg19
S'(0.4, email)'
p524
sg23
g440
sbag0
(g120
g2
Ntp525
Rp526
(dp527
g124
F0.6
sg19
S'(0.6, email)'
p528
sg23
g440
sbag0
(g120
g2
Ntp529
Rp530
(dp531
g124
F0.8
sg19
S'(0.8, email)'
p532
sg23
g440
sbag0
(g138
g2
Ntp533
Rp534
(dp535
g124
F0.2
sg19
S'(0.2, email)'
p536
sg23
g440
sbag0
(g138
g2
Ntp537
Rp538
(dp539
g124
F0.4
sg19
S'(0.4, email)'
p540
sg23
g440
sbag0
(g138
g2
Ntp541
Rp542
(dp543
g124
F0.6
sg19
S'(0.6, email)'
p544
sg23
g440
sbag0
(g138
g2
Ntp545
Rp546
(dp547
g124
F0.8
sg19
S'(0.8, email)'
p548
sg23
g440
sbag0
(g155
g2
Ntp549
Rp550
(dp551
g124
F0.2
sg19
S'(0.2, email)'
p552
sg23
g440
sbag0
(g155
g2
Ntp553
Rp554
(dp555
g124
F0.4
sg19
S'(0.4, email)'
p556
sg23
g440
sbag0
(g155
g2
Ntp557
Rp558
(dp559
g124
F0.6
sg19
S'(0.6, email)'
p560
sg23
g440
sbag0
(g155
g2
Ntp561
Rp562
(dp563
g124
F0.8
sg19
S'(0.8, email)'
p564
sg23
g440
sbag0
(g172
g2
Ntp565
Rp566
(dp567
g124
F0.2
sg19
S'(0.2, email)'
p568
sg23
g440
sbag0
(g172
g2
Ntp569
Rp570
(dp571
g124
F0.4
sg19
S'(0.4, email)'
p572
sg23
g440
sbag0
(g172
g2
Ntp573
Rp574
(dp575
g124
F0.6
sg19
S'(0.6, email)'
p576
sg23
g440
sbag0
(g172
g2
Ntp577
Rp578
(dp579
g124
F0.8
sg19
S'(0.8, email)'
p580
sg23
g440
sbag0
(g189
g2
Ntp581
Rp582
(dp583
g124
I1
sg19
S'(1, email)'
p584
sg23
g440
sbag0
(g189
g2
Ntp585
Rp586
(dp587
g124
I2
sg19
S'(2, email)'
p588
sg23
g440
sbag0
(g189
g2
Ntp589
Rp590
(dp591
g124
I3
sg19
S'(3, email)'
p592
sg23
g440
sbag0
(g189
g2
Ntp593
Rp594
(dp595
g124
I4
sg19
S'(4, email)'
p596
sg23
g440
sbag0
(g206
g2
Ntp597
Rp598
(dp599
g124
I1
sg19
S'(1, email)'
p600
sg23
g440
sbag0
(g206
g2
Ntp601
Rp602
(dp603
g124
I2
sg19
S'(2, email)'
p604
sg23
g440
sbag0
(g206
g2
Ntp605
Rp606
(dp607
g124
I3
sg19
S'(3, email)'
p608
sg23
g440
sbag0
(g206
g2
Ntp609
Rp610
(dp611
g124
I4
sg19
S'(4, email)'
p612
sg23
g440
sbasg23
g440
sg223
S'(email: String)'
p613
sg225
I00
sg226
g227
sbasS'_variables'
p614
(lp615
g10
ag230
ag251
ag433
asS'_missing_field_indices'
p616
(lp617
sS'_derived_start'
p618
I4
sS'_interaction_indices'
p619
(lp620
sb.ccopy_reg
_reconstructor
p0
(crlr.lr
RegularizedLogisticRegression
p1
c__builtin__
object
p2
Ntp3
Rp4
(dp5
S'alpha'
p6
F0.01
sS'bias'
p7
cnumpy.core.multiarray
scalar
p8
(cnumpy
dtype
p9
(S'f8'
p10
I0
I1
tp11
Rp12
(I3
S'<'
p13
NNNI-1
I-1
I0
tp14
bS'\xd0\x88_\x89\\y%@'
p15
tp16
Rp17
sS'num_cores'
p18
I0
sS'cv'
p19
I3
sS'weights'
p20
cnumpy.core.multiarray
_reconstruct
p21
(cnumpy
ndarray
p22
(I0
tp23
S'b'
p24
tp25
Rp26
(I1
(L4L
tp27
g12
I00
S'\xb0\x85\xe4\xfb\x14\xec&\xc0-\xd8O7\xc0\x0c\xf7\xbff\xb7\x87\\\xcc\x0c\xf6?b\xef\x03=\xc8e\n\xc0'
p28
tp29
bsb.(ccopy_reg
_reconstructor
p0
(cdedupe.predicates
CompoundPredicate
p1
c__builtin__
tuple
p2
(g0
(cdedupe.predicates
LevenshteinCanopyPredicate
p3
c__builtin__
object
p4
Ntp5
Rp6
(dp7
S'threshold'
p8
I4
sS'__name__'
p9
S'(4, title)'
p10
sS'field'
p11
S'title'
p12
sbg0
(cdedupe.predicates
TfidfTextCanopyPredicate
p13
g4
Ntp14
Rp15
(dp16
g8
F0.6
sg9
S'(0.6, email)'
p17
sg11
S'email'
p18
sbtp19
tp20
Rp21
(dp22
S'count'
p23
F1086.0
sbtp24
.