ccopy_reg
_reconstructor
p0
(cdedupe.datamodel
DataModel
p1
c__builtin__
object
p2
Ntp3
Rp4
(dp5
S'primary_fields'
p6
(lp7
g0
(cdedupe.variables.string
StringType
p8
g2
Ntp9
Rp10
(dp11
S'predicates'
p12
(lp13
g0
(cdedupe.predicates
StringPredicate
p14
g2
Ntp15
Rp16
(dp17
S'_cached_hash'
p18
I49594795
sS'__name__'
p19
S'(wholeFieldPredicate, title)'
p20
sS'func'
p21
cdedupe.predicates
wholeFieldPredicate
p22
sS'field'
p23
S'title'
p24
sbag0
(g14
g2
Ntp25
Rp26
(dp27
g18
I-1633876259
sg19
S'(firstTokenPredicate, title)'
p28
sg21
cdedupe.predicates
firstTokenPredicate
p29
sg23
g24
sbag0
(g14
g2
Ntp30
Rp31
(dp32
g18
I-523547272
sg19
S'(commonIntegerPredicate, title)'
p33
sg21
cdedupe.predicates
commonIntegerPredicate
p34
sg23
g24
sbag0
(g14
g2
Ntp35
Rp36
(dp37
g18
I1683328537
sg19
S'(nearIntegersPredicate, title)'
p38
sg21
cdedupe.predicates
nearIntegersPredicate
p39
sg23
g24
sbag0
(g14
g2
Ntp40
Rp41
(dp42
g18
I1629619116
sg19
S'(firstIntegerPredicate, title)'
p43
sg21
cdedupe.predicates
firstIntegerPredicate
p44
sg23
g24
sbag0
(g14
g2
Ntp45
Rp46
(dp47
g18
I-592226272
sg19
S'(sameThreeCharStartPredicate, title)'
p48
sg21
cdedupe.predicates
sameThreeCharStartPredicate
p49
sg23
g24
sbag0
(g14
g2
Ntp50
Rp51
(dp52
g18
I-300370793
sg19
S'(sameFiveCharStartPredicate, title)'
p53
sg21
cdedupe.predicates
sameFiveCharStartPredicate
p54
sg23
g24
sbag0
(g14
g2
Ntp55
Rp56
(dp57
g18
I-1203404661
sg19
S'(sameSevenCharStartPredicate, title)'
p58
sg21
cdedupe.predicates
sameSevenCharStartPredicate
p59
sg23
g24
sbag0
(g14
g2
Ntp60
Rp61
(dp62
g18
I-491692140
sg19
S'(commonTwoTokens, title)'
p63
sg21
cdedupe.predicates
commonTwoTokens
p64
sg23
g24
sbag0
(g14
g2
Ntp65
Rp66
(dp67
g18
I-804264336
sg19
S'(commonThreeTokens, title)'
p68
sg21
cdedupe.predicates
commonThreeTokens
p69
sg23
g24
sbag0
(g14
g2
Ntp70
Rp71
(dp72
g18
I1537994277
sg19
S'(fingerprint, title)'
p73
sg21
cdedupe.predicates
fingerprint
p74
sg23
g24
sbag0
(g14
g2
Ntp75
Rp76
(dp77
g18
I1546637457
sg19
S'(oneGramFingerprint, title)'
p78
sg21
cdedupe.predicates
oneGramFingerprint
p79
sg23
g24
sbag0
(g14
g2
Ntp80
Rp81
(dp82
g18
I2087252139
sg19
S'(twoGramFingerprint, title)'
p83
sg21
cdedupe.predicates
twoGramFingerprint
p84
sg23
g24
sbag0
(g14
g2
Ntp85
Rp86
(dp87
g18
I-1372890427
sg19
S'(sortedAcronym, title)'
p88
sg21
cdedupe.predicates
sortedAcronym
p89
sg23
g24
sbag0
(g14
g2
Ntp90
Rp91
(dp92
g18
I-1009683320
sg19
S'(commonFourGram, title)'
p93
sg21
cdedupe.predicates
commonFourGram
p94
sg23
g24
sbag0
(g14
g2
Ntp95
Rp96
(dp97
g18
I-1813058937
sg19
S'(commonSixGram, title)'
p98
sg21
cdedupe.predicates
commonSixGram
p99
sg23
g24
sbag0
(g14
g2
Ntp100
Rp101
(dp102
g18
I-2109848355
sg19
S'(tokenFieldPredicate, title)'
p103
sg21
cdedupe.predicates
tokenFieldPredicate
p104
sg23
g24
sbag0
(g14
g2
Ntp105
Rp106
(dp107
g18
I-1360794925
sg19
S'(suffixArray, title)'
p108
sg21
cdedupe.predicates
suffixArray
p109
sg23
g24
sbag0
(g14
g2
Ntp110
Rp111
(dp112
g18
I-777209299
sg19
S'(doubleMetaphone, title)'
p113
sg21
cdedupe.predicates
doubleMetaphone
p114
sg23
g24
sbag0
(g14
g2
Ntp115
Rp116
(dp117
g18
I-653387606
sg19
S'(metaphoneToken, title)'
p118
sg21
cdedupe.predicates
metaphoneToken
p119
sg23
g24
sbag0
(cdedupe.predicates
TfidfNGramCanopyPredicate
p120
g2
Ntp121
Rp122
(dp123
S'threshold'
p124
F0.2
sg19
S'(0.2, title)'
p125
sg23
g24
sbag0
(g120
g2
Ntp126
Rp127
(dp128
g124
F0.4
sg19
S'(0.4, title)'
p129
sg23
g24
sbag0
(g120
g2
Ntp130
Rp131
(dp132
g124
F0.6
sg19
S'(0.6, title)'
p133
sg23
g24
sbag0
(g120
g2
Ntp134
Rp135
(dp136
g124
F0.8
sg19
S'(0.8, title)'
p137
sg23
g24
sbag0
(cdedupe.predicates
TfidfNGramSearchPredicate
p138
g2
Ntp139
Rp140
(dp141
g124
F0.2
sg19
S'(0.2, title)'
p142
sg23
g24
sbag0
(g138
g2
Ntp143
Rp144
(dp145
g124
F0.4
sg19
S'(0.4, title)'
p146
sg23
g24
sbag0
(g138
g2
Ntp147
Rp148
(dp149
g124
F0.6
sg19
S'(0.6, title)'
p150
sg23
g24
sbag0
(g138
g2
Ntp151
Rp152
(dp153
g124
F0.8
sg19
S'(0.8, title)'
p154
sg23
g24
sbag0
(cdedupe.predicates
TfidfTextCanopyPredicate
p155
g2
Ntp156
Rp157
(dp158
g124
F0.2
sg19
S'(0.2, title)'
p159
sg23
g24
sbag0
(g155
g2
Ntp160
Rp161
(dp162
g124
F0.4
sg19
S'(0.4, title)'
p163
sg23
g24
sbag0
(g155
g2
Ntp164
Rp165
(dp166
g124
F0.6
sg19
S'(0.6, title)'
p167
sg23
g24
sbag0
(g155
g2
Ntp168
Rp169
(dp170
g124
F0.8
sg19
S'(0.8, title)'
p171
sg23
g24
sbag0
(cdedupe.predicates
TfidfTextSearchPredicate
p172
g2
Ntp173
Rp174
(dp175
g124
F0.2
sg19
S'(0.2, title)'
p176
sg23
g24
sbag0
(g172
g2
Ntp177
Rp178
(dp179
g124
F0.4
sg19
S'(0.4, title)'
p180
sg23
g24
sbag0
(g172
g2
Ntp181
Rp182
(dp183
g124
F0.6
sg19
S'(0.6, title)'
p184
sg23
g24
sbag0
(g172
g2
Ntp185
Rp186
(dp187
g124
F0.8
sg19
S'(0.8, title)'
p188
sg23
g24
sbag0
(cdedupe.predicates
LevenshteinCanopyPredicate
p189
g2
Ntp190
Rp191
(dp192
g124
I1
sg19
S'(1, title)'
p193
sg23
g24
sbag0
(g189
g2
Ntp194
Rp195
(dp196
g124
I2
sg19
S'(2, title)'
p197
sg23
g24
sbag0
(g189
g2
Ntp198
Rp199
(dp200
g124
I3
sg19
S'(3, title)'
p201
sg23
g24
sbag0
(g189
g2
Ntp202
Rp203
(dp204
g124
I4
sg19
S'(4, title)'
p205
sg23
g24
sbag0
(cdedupe.predicates
LevenshteinSearchPredicate
p206
g2
Ntp207
Rp208
(dp209
g124
I1
sg19
S'(1, title)'
p210
sg23
g24
sbag0
(g206
g2
Ntp211
Rp212
(dp213
g124
I2
sg19
S'(2, title)'
p214
sg23
g24
sbag0
(g206
g2
Ntp215
Rp216
(dp217
g124
I3
sg19
S'(3, title)'
p218
sg23
g24
sbag0
(g206
g2
Ntp219
Rp220
(dp221
g124
I4
sg19
S'(4, title)'
p222
sg23
g24
sbasg23
g24
sS'name'
p223
S'(title: String)'
p224
sS'has_missing'
p225
I00
sS'comparator'
p226
caffinegap.affinegap
normalizedAffineGapDistance
p227
sbag0
(cdedupe.variables.price
PriceType
p228
g2
Ntp229
Rp230
(dp231
g12
(lp232
g0
(cdedupe.predicates
SimplePredicate
p233
g2
Ntp234
Rp235
(dp236
g18
I-1557573916
sg19
S'(orderOfMagnitude, value)'
p237
sg21
cdedupe.predicates
orderOfMagnitude
p238
sg23
S'value'
p239
sbag0
(g233
g2
Ntp240
Rp241
(dp242
g18
I-1898576808
sg19
S'(wholeFieldPredicate, value)'
p243
sg21
g22
sg23
g239
sbag0
(g233
g2
Ntp244
Rp245
(dp246
g18
I-831579693
sg19
S'(roundTo1, value)'
p247
sg21
cdedupe.predicates
roundTo1
p248
sg23
g239
sbasg23
g239
sg223
S'(value: Price)'
p249
sg225
I00
sbag0
(g8
g2
Ntp250
Rp251
(dp252
g12
(lp253
g0
(g14
g2
Ntp254
Rp255
(dp256
g18
I-278548590
sg19
S'(wholeFieldPredicate, buyer)'
p257
sg21
g22
sg23
S'buyer'
p258
sbag0
(g14
g2
Ntp259
Rp260
(dp261
g18
I150509372
sg19
S'(firstTokenPredicate, buyer)'
p262
sg21
g29
sg23
g258
sbag0
(g14
g2
Ntp263
Rp264
(dp265
g18
I196155273
sg19
S'(commonIntegerPredicate, buyer)'
p266
sg21
g34
sg23
g258
sbag0
(g14
g2
Ntp267
Rp268
(dp269
g18
I1201319392
sg19
S'(nearIntegersPredicate, buyer)'
p270
sg21
g39
sg23
g258
sbag0
(g14
g2
Ntp271
Rp272
(dp273
g18
I796344109
sg19
S'(firstIntegerPredicate, buyer)'
p274
sg21
g44
sg23
g258
sbag0
(g14
g2
Ntp275
Rp276
(dp277
g18
I-1368468255
sg19
S'(sameThreeCharStartPredicate, buyer)'
p278
sg21
g49
sg23
g258
sbag0
(g14
g2
Ntp279
Rp280
(dp281
g18
I-1389646570
sg19
S'(sameFiveCharStartPredicate, buyer)'
p282
sg21
g54
sg23
g258
sbag0
(g14
g2
Ntp283
Rp284
(dp285
g18
I226713106
sg19
S'(sameSevenCharStartPredicate, buyer)'
p286
sg21
g59
sg23
g258
sbag0
(g14
g2
Ntp287
Rp288
(dp289
g18
I-1039465275
sg19
S'(commonTwoTokens, buyer)'
p290
sg21
g64
sg23
g258
sbag0
(g14
g2
Ntp291
Rp292
(dp293
g18
I-449312607
sg19
S'(commonThreeTokens, buyer)'
p294
sg21
g69
sg23
g258
sbag0
(g14
g2
Ntp295
Rp296
(dp297
g18
I-217991260
sg19
S'(fingerprint, buyer)'
p298
sg21
g74
sg23
g258
sbag0
(g14
g2
Ntp299
Rp300
(dp301
g18
I998864320
sg19
S'(oneGramFingerprint, buyer)'
p302
sg21
g79
sg23
g258
sbag0
(g14
g2
Ntp303
Rp304
(dp305
g18
I227506858
sg19
S'(twoGramFingerprint, buyer)'
p306
sg21
g84
sg23
g258
sbag0
(g14
g2
Ntp307
Rp308
(dp309
g18
I-528343524
sg19
S'(sortedAcronym, buyer)'
p310
sg21
g89
sg23
g258
sbag0
(g14
g2
Ntp311
Rp312
(dp313
g18
I1518974217
sg19
S'(commonFourGram, buyer)'
p314
sg21
g94
sg23
g258
sbag0
(g14
g2
Ntp315
Rp316
(dp317
g18
I715598598
sg19
S'(commonSixGram, buyer)'
p318
sg21
g99
sg23
g258
sbag0
(g14
g2
Ntp319
Rp320
(dp321
g18
I-325462724
sg19
S'(tokenFieldPredicate, buyer)'
p322
sg21
g104
sg23
g258
sbag0
(g14
g2
Ntp323
Rp324
(dp325
g18
I-1350929494
sg19
S'(suffixArray, buyer)'
p326
sg21
g109
sg23
g258
sbag0
(g14
g2
Ntp327
Rp328
(dp329
g18
I1726887772
sg19
S'(doubleMetaphone, buyer)'
p330
sg21
g114
sg23
g258
sbag0
(g14
g2
Ntp331
Rp332
(dp333
g18
I781043955
sg19
S'(metaphoneToken, buyer)'
p334
sg21
g119
sg23
g258
sbag0
(g120
g2
Ntp335
Rp336
(dp337
g124
F0.2
sg19
S'(0.2, buyer)'
p338
sg23
g258
sbag0
(g120
g2
Ntp339
Rp340
(dp341
g124
F0.4
sg19
S'(0.4, buyer)'
p342
sg23
g258
sbag0
(g120
g2
Ntp343
Rp344
(dp345
g124
F0.6
sg19
S'(0.6, buyer)'
p346
sg23
g258
sbag0
(g120
g2
Ntp347
Rp348
(dp349
g124
F0.8
sg19
S'(0.8, buyer)'
p350
sg23
g258
sbag0
(g138
g2
Ntp351
Rp352
(dp353
g124
F0.2
sg19
S'(0.2, buyer)'
p354
sg23
g258
sbag0
(g138
g2
Ntp355
Rp356
(dp357
g124
F0.4
sg19
S'(0.4, buyer)'
p358
sg23
g258
sbag0
(g138
g2
Ntp359
Rp360
(dp361
g124
F0.6
sg19
S'(0.6, buyer)'
p362
sg23
g258
sbag0
(g138
g2
Ntp363
Rp364
(dp365
g124
F0.8
sg19
S'(0.8, buyer)'
p366
sg23
g258
sbag0
(g155
g2
Ntp367
Rp368
(dp369
g124
F0.2
sg19
S'(0.2, buyer)'
p370
sg23
g258
sbag0
(g155
g2
Ntp371
Rp372
(dp373
g124
F0.4
sg19
S'(0.4, buyer)'
p374
sg23
g258
sbag0
(g155
g2
Ntp375
Rp376
(dp377
g124
F0.6
sg19
S'(0.6, buyer)'
p378
sg23
g258
sbag0
(g155
g2
Ntp379
Rp380
(dp381
g124
F0.8
sg19
S'(0.8, buyer)'
p382
sg23
g258
sbag0
(g172
g2
Ntp383
Rp384
(dp385
g124
F0.2
sg19
S'(0.2, buyer)'
p386
sg23
g258
sbag0
(g172
g2
Ntp387
Rp388
(dp389
g124
F0.4
sg19
S'(0.4, buyer)'
p390
sg23
g258
sbag0
(g172
g2
Ntp391
Rp392
(dp393
g124
F0.6
sg19
S'(0.6, buyer)'
p394
sg23
g258
sbag0
(g172
g2
Ntp395
Rp396
(dp397
g124
F0.8
sg19
S'(0.8, buyer)'
p398
sg23
g258
sbag0
(g189
g2
Ntp399
Rp400
(dp401
g124
I1
sg19
S'(1, buyer)'
p402
sg23
g258
sbag0
(g189
g2
Ntp403
Rp404
(dp405
g124
I2
sg19
S'(2, buyer)'
p406
sg23
g258
sbag0
(g189
g2
Ntp407
Rp408
(dp409
g124
I3
sg19
S'(3, buyer)'
p410
sg23
g258
sbag0
(g189
g2
Ntp411
Rp412
(dp413
g124
I4
sg19
S'(4, buyer)'
p414
sg23
g258
sbag0
(g206
g2
Ntp415
Rp416
(dp417
g124
I1
sg19
S'(1, buyer)'
p418
sg23
g258
sbag0
(g206
g2
Ntp419
Rp420
(dp421
g124
I2
sg19
S'(2, buyer)'
p422
sg23
g258
sbag0
(g206
g2
Ntp423
Rp424
(dp425
g124
I3
sg19
S'(3, buyer)'
p426
sg23
g258
sbag0
(g206
g2
Ntp427
Rp428
(dp429
g124
I4
sg19
S'(4, buyer)'
p430
sg23
g258
sbasg23
g258
sg223
S'(buyer: String)'
p431
sg225
I00
sg226
g227
sbag0
(g8
g2
Ntp432
Rp433
(dp434
g12
(lp435
g0
(g14
g2
Ntp436
Rp437
(dp438
g18
I-958155415
sg19
S'(wholeFieldPredicate, postcode)'
p439
sg21
g22
sg23
S'postcode'
p440
sbag0
(g14
g2
Ntp441
Rp442
(dp443
g18
I1273026719
sg19
S'(firstTokenPredicate, postcode)'
p444
sg21
g29
sg23
g440
sbag0
(g14
g2
Ntp445
Rp446
(dp447
g18
I-1600625468
sg19
S'(commonIntegerPredicate, postcode)'
p448
sg21
g34
sg23
g440
sbag0
(g14
g2
Ntp449
Rp450
(dp451
g18
I1201306939
sg19
S'(nearIntegersPredicate, postcode)'
p452
sg21
g39
sg23
g440
sbag0
(g14
g2
Ntp453
Rp454
(dp455
g18
I1743928288
sg19
S'(firstIntegerPredicate, postcode)'
p456
sg21
g44
sg23
g440
sbag0
(g14
g2
Ntp457
Rp458
(dp459
g18
I233354536
sg19
S'(sameThreeCharStartPredicate, postcode)'
p460
sg21
g49
sg23
g440
sbag0
(g14
g2
Ntp461
Rp462
(dp463
g18
I358174277
sg19
S'(sameFiveCharStartPredicate, postcode)'
p464
sg21
g54
sg23
g440
sbag0
(g14
g2
Ntp465
Rp466
(dp467
g18
I-179408487
sg19
S'(sameSevenCharStartPredicate, postcode)'
p468
sg21
g59
sg23
g440
sbag0
(g14
g2
Ntp469
Rp470
(dp471
g18
I1762118916
sg19
S'(commonTwoTokens, postcode)'
p472
sg21
g64
sg23
g440
sbag0
(g14
g2
Ntp473
Rp474
(dp475
g18
I560126260
sg19
S'(commonThreeTokens, postcode)'
p476
sg21
g69
sg23
g440
sbag0
(g14
g2
Ntp477
Rp478
(dp479
g18
I-1574409769
sg19
S'(fingerprint, postcode)'
p480
sg21
g74
sg23
g440
sbag0
(g14
g2
Ntp481
Rp482
(dp483
g18
I-83986425
sg19
S'(oneGramFingerprint, postcode)'
p484
sg21
g79
sg23
g440
sbag0
(g14
g2
Ntp485
Rp486
(dp487
g18
I1234346409
sg19
S'(twoGramFingerprint, postcode)'
p488
sg21
g84
sg23
g440
sbag0
(g14
g2
Ntp489
Rp490
(dp491
g18
I-2122436209
sg19
S'(sortedAcronym, postcode)'
p492
sg21
g89
sg23
g440
sbag0
(g14
g2
Ntp493
Rp494
(dp495
g18
I537366964
sg19
S'(commonFourGram, postcode)'
p496
sg21
g94
sg23
g440
sbag0
(g14
g2
Ntp497
Rp498
(dp499
g18
I-1010596939
sg19
S'(commonSixGram, postcode)'
p500
sg21
g99
sg23
g440
sbag0
(g14
g2
Ntp501
Rp502
(dp503
g18
I-625417569
sg19
S'(tokenFieldPredicate, postcode)'
p504
sg21
g104
sg23
g440
sbag0
(g14
g2
Ntp505
Rp506
(dp507
g18
I-1092120607
sg19
S'(suffixArray, postcode)'
p508
sg21
g109
sg23
g440
sbag0
(g14
g2
Ntp509
Rp510
(dp511
g18
I-90641601
sg19
S'(doubleMetaphone, postcode)'
p512
sg21
g114
sg23
g440
sbag0
(g14
g2
Ntp513
Rp514
(dp515
g18
I662400750
sg19
S'(metaphoneToken, postcode)'
p516
sg21
g119
sg23
g440
sbag0
(g120
g2
Ntp517
Rp518
(dp519
g124
F0.2
sg19
S'(0.2, postcode)'
p520
sg23
g440
sbag0
(g120
g2
Ntp521
Rp522
(dp523
g124
F0.4
sg19
S'(0.4, postcode)'
p524
sg23
g440
sbag0
(g120
g2
Ntp525
Rp526
(dp527
g124
F0.6
sg19
S'(0.6, postcode)'
p528
sg23
g440
sbag0
(g120
g2
Ntp529
Rp530
(dp531
g124
F0.8
sg19
S'(0.8, postcode)'
p532
sg23
g440
sbag0
(g138
g2
Ntp533
Rp534
(dp535
g124
F0.2
sg19
S'(0.2, postcode)'
p536
sg23
g440
sbag0
(g138
g2
Ntp537
Rp538
(dp539
g124
F0.4
sg19
S'(0.4, postcode)'
p540
sg23
g440
sbag0
(g138
g2
Ntp541
Rp542
(dp543
g124
F0.6
sg19
S'(0.6, postcode)'
p544
sg23
g440
sbag0
(g138
g2
Ntp545
Rp546
(dp547
g124
F0.8
sg19
S'(0.8, postcode)'
p548
sg23
g440
sbag0
(g155
g2
Ntp549
Rp550
(dp551
g124
F0.2
sg19
S'(0.2, postcode)'
p552
sg23
g440
sbag0
(g155
g2
Ntp553
Rp554
(dp555
g124
F0.4
sg19
S'(0.4, postcode)'
p556
sg23
g440
sbag0
(g155
g2
Ntp557
Rp558
(dp559
g124
F0.6
sg19
S'(0.6, postcode)'
p560
sg23
g440
sbag0
(g155
g2
Ntp561
Rp562
(dp563
g124
F0.8
sg19
S'(0.8, postcode)'
p564
sg23
g440
sbag0
(g172
g2
Ntp565
Rp566
(dp567
g124
F0.2
sg19
S'(0.2, postcode)'
p568
sg23
g440
sbag0
(g172
g2
Ntp569
Rp570
(dp571
g124
F0.4
sg19
S'(0.4, postcode)'
p572
sg23
g440
sbag0
(g172
g2
Ntp573
Rp574
(dp575
g124
F0.6
sg19
S'(0.6, postcode)'
p576
sg23
g440
sbag0
(g172
g2
Ntp577
Rp578
(dp579
g124
F0.8
sg19
S'(0.8, postcode)'
p580
sg23
g440
sbag0
(g189
g2
Ntp581
Rp582
(dp583
g124
I1
sg19
S'(1, postcode)'
p584
sg23
g440
sbag0
(g189
g2
Ntp585
Rp586
(dp587
g124
I2
sg19
S'(2, postcode)'
p588
sg23
g440
sbag0
(g189
g2
Ntp589
Rp590
(dp591
g124
I3
sg19
S'(3, postcode)'
p592
sg23
g440
sbag0
(g189
g2
Ntp593
Rp594
(dp595
g124
I4
sg19
S'(4, postcode)'
p596
sg23
g440
sbag0
(g206
g2
Ntp597
Rp598
(dp599
g124
I1
sg19
S'(1, postcode)'
p600
sg23
g440
sbag0
(g206
g2
Ntp601
Rp602
(dp603
g124
I2
sg19
S'(2, postcode)'
p604
sg23
g440
sbag0
(g206
g2
Ntp605
Rp606
(dp607
g124
I3
sg19
S'(3, postcode)'
p608
sg23
g440
sbag0
(g206
g2
Ntp609
Rp610
(dp611
g124
I4
sg19
S'(4, postcode)'
p612
sg23
g440
sbasg23
g440
sg223
S'(postcode: String)'
p613
sg225
I00
sg226
g227
sbag0
(g8
g2
Ntp614
Rp615
(dp616
g12
(lp617
g0
(g14
g2
Ntp618
Rp619
(dp620
g18
I214604545
sg19
S'(wholeFieldPredicate, email)'
p621
sg21
g22
sg23
S'email'
p622
sbag0
(g14
g2
Ntp623
Rp624
(dp625
g18
I-2103326301
sg19
S'(firstTokenPredicate, email)'
p626
sg21
g29
sg23
g622
sbag0
(g14
g2
Ntp627
Rp628
(dp629
g18
I-1993062266
sg19
S'(commonIntegerPredicate, email)'
p630
sg21
g34
sg23
g622
sbag0
(g14
g2
Ntp631
Rp632
(dp633
g18
I1437133363
sg19
S'(nearIntegersPredicate, email)'
p634
sg21
g39
sg23
g622
sbag0
(g14
g2
Ntp635
Rp636
(dp637
g18
I-171126094
sg19
S'(firstIntegerPredicate, email)'
p638
sg21
g44
sg23
g622
sbag0
(g14
g2
Ntp639
Rp640
(dp641
g18
I162279290
sg19
S'(sameThreeCharStartPredicate, email)'
p642
sg21
g49
sg23
g622
sbag0
(g14
g2
Ntp643
Rp644
(dp645
g18
I-1265033335
sg19
S'(sameFiveCharStartPredicate, email)'
p646
sg21
g54
sg23
g622
sbag0
(g14
g2
Ntp647
Rp648
(dp649
g18
I940654177
sg19
S'(sameSevenCharStartPredicate, email)'
p650
sg21
g59
sg23
g622
sbag0
(g14
g2
Ntp651
Rp652
(dp653
g18
I1579495822
sg19
S'(commonTwoTokens, email)'
p654
sg21
g64
sg23
g622
sbag0
(g14
g2
Ntp655
Rp656
(dp657
g18
I-470416658
sg19
S'(commonThreeTokens, email)'
p658
sg21
g69
sg23
g622
sbag0
(g14
g2
Ntp659
Rp660
(dp661
g18
I-2113093637
sg19
S'(fingerprint, email)'
p662
sg21
g74
sg23
g622
sbag0
(g14
g2
Ntp663
Rp664
(dp665
g18
I-677141877
sg19
S'(oneGramFingerprint, email)'
p666
sg21
g79
sg23
g622
sbag0
(g14
g2
Ntp667
Rp668
(dp669
g18
I-1505339835
sg19
S'(twoGramFingerprint, email)'
p670
sg21
g84
sg23
g622
sbag0
(g14
g2
Ntp671
Rp672
(dp673
g18
I2143571287
sg19
S'(sortedAcronym, email)'
p674
sg21
g89
sg23
g622
sbag0
(g14
g2
Ntp675
Rp676
(dp677
g18
I726800982
sg19
S'(commonFourGram, email)'
p678
sg21
g94
sg23
g622
sbag0
(g14
g2
Ntp679
Rp680
(dp681
g18
I-76574631
sg19
S'(commonSixGram, email)'
p682
sg21
g99
sg23
g622
sbag0
(g14
g2
Ntp683
Rp684
(dp685
g18
I1715668899
sg19
S'(tokenFieldPredicate, email)'
p686
sg21
g104
sg23
g622
sbag0
(g14
g2
Ntp687
Rp688
(dp689
g18
I2087246841
sg19
S'(suffixArray, email)'
p690
sg21
g109
sg23
g622
sbag0
(g14
g2
Ntp691
Rp692
(dp693
g18
I1090083235
sg19
S'(doubleMetaphone, email)'
p694
sg21
g114
sg23
g622
sbag0
(g14
g2
Ntp695
Rp696
(dp697
g18
I-831684296
sg19
S'(metaphoneToken, email)'
p698
sg21
g119
sg23
g622
sbag0
(g120
g2
Ntp699
Rp700
(dp701
g124
F0.2
sg19
S'(0.2, email)'
p702
sg23
g622
sbag0
(g120
g2
Ntp703
Rp704
(dp705
g124
F0.4
sg19
S'(0.4, email)'
p706
sg23
g622
sbag0
(g120
g2
Ntp707
Rp708
(dp709
g124
F0.6
sg19
S'(0.6, email)'
p710
sg23
g622
sbag0
(g120
g2
Ntp711
Rp712
(dp713
g124
F0.8
sg19
S'(0.8, email)'
p714
sg23
g622
sbag0
(g138
g2
Ntp715
Rp716
(dp717
g124
F0.2
sg19
S'(0.2, email)'
p718
sg23
g622
sbag0
(g138
g2
Ntp719
Rp720
(dp721
g124
F0.4
sg19
S'(0.4, email)'
p722
sg23
g622
sbag0
(g138
g2
Ntp723
Rp724
(dp725
g124
F0.6
sg19
S'(0.6, email)'
p726
sg23
g622
sbag0
(g138
g2
Ntp727
Rp728
(dp729
g124
F0.8
sg19
S'(0.8, email)'
p730
sg23
g622
sbag0
(g155
g2
Ntp731
Rp732
(dp733
g124
F0.2
sg19
S'(0.2, email)'
p734
sg23
g622
sbag0
(g155
g2
Ntp735
Rp736
(dp737
g124
F0.4
sg19
S'(0.4, email)'
p738
sg23
g622
sbag0
(g155
g2
Ntp739
Rp740
(dp741
g124
F0.6
sg19
S'(0.6, email)'
p742
sg23
g622
sbag0
(g155
g2
Ntp743
Rp744
(dp745
g124
F0.8
sg19
S'(0.8, email)'
p746
sg23
g622
sbag0
(g172
g2
Ntp747
Rp748
(dp749
g124
F0.2
sg19
S'(0.2, email)'
p750
sg23
g622
sbag0
(g172
g2
Ntp751
Rp752
(dp753
g124
F0.4
sg19
S'(0.4, email)'
p754
sg23
g622
sbag0
(g172
g2
Ntp755
Rp756
(dp757
g124
F0.6
sg19
S'(0.6, email)'
p758
sg23
g622
sbag0
(g172
g2
Ntp759
Rp760
(dp761
g124
F0.8
sg19
S'(0.8, email)'
p762
sg23
g622
sbag0
(g189
g2
Ntp763
Rp764
(dp765
g124
I1
sg19
S'(1, email)'
p766
sg23
g622
sbag0
(g189
g2
Ntp767
Rp768
(dp769
g124
I2
sg19
S'(2, email)'
p770
sg23
g622
sbag0
(g189
g2
Ntp771
Rp772
(dp773
g124
I3
sg19
S'(3, email)'
p774
sg23
g622
sbag0
(g189
g2
Ntp775
Rp776
(dp777
g124
I4
sg19
S'(4, email)'
p778
sg23
g622
sbag0
(g206
g2
Ntp779
Rp780
(dp781
g124
I1
sg19
S'(1, email)'
p782
sg23
g622
sbag0
(g206
g2
Ntp783
Rp784
(dp785
g124
I2
sg19
S'(2, email)'
p786
sg23
g622
sbag0
(g206
g2
Ntp787
Rp788
(dp789
g124
I3
sg19
S'(3, email)'
p790
sg23
g622
sbag0
(g206
g2
Ntp791
Rp792
(dp793
g124
I4
sg19
S'(4, email)'
p794
sg23
g622
sbasg23
g622
sg223
S'(email: String)'
p795
sg225
I00
sg226
g227
sbag0
(cdedupe.variables.date_time
DateTimeType
p796
g2
Ntp797
Rp798
(dp799
g223
S'(enddate: DateTime)'
p800
sS'dayfirst'
p801
I01
sS'variables'
p802
(S'seconds'
p803
S'days'
p804
S'months'
p805
S'years'
p806
S'full string'
p807
tp808
sg23
S'enddate'
p809
sS'expanded_size'
p810
I10
sS'higher_vars'
p811
(lp812
g0
(cdedupe.variables.base
DerivedType
p813
g2
Ntp814
Rp815
(dp816
g223
S'(enddate: Not Missing: Dummy)'
p817
sg225
I00
sbag0
(g813
g2
Ntp818
Rp819
(dp820
g223
S'(seconds: Dummy)'
p821
sg225
I00
sbag0
(g813
g2
Ntp822
Rp823
(dp824
g223
S'(days: Dummy)'
p825
sg225
I00
sbag0
(g813
g2
Ntp826
Rp827
(dp828
g223
S'(months: Dummy)'
p829
sg225
I00
sbag0
(g813
g2
Ntp830
Rp831
(dp832
g223
S'(years: Dummy)'
p833
sg225
I00
sbag0
(g813
g2
Ntp834
Rp835
(dp836
g223
S'(seconds: Derived)'
p837
sg225
I00
sbag0
(g813
g2
Ntp838
Rp839
(dp840
g223
S'(days: Derived)'
p841
sg225
I00
sbag0
(g813
g2
Ntp842
Rp843
(dp844
g223
S'(months: Derived)'
p845
sg225
I00
sbag0
(g813
g2
Ntp846
Rp847
(dp848
g223
S'(years: Derived)'
p849
sg225
I00
sbag0
(g813
g2
Ntp850
Rp851
(dp852
g223
S'(full string: Derived)'
p853
sg225
I00
sbasg225
I00
sg12
(lp854
g0
(g233
g2
Ntp855
Rp856
(dp857
g18
I1186539094
sg19
S'(wholeFieldPredicate, enddate)'
p858
sg21
g22
sg23
g809
sbag0
(g233
g2
Ntp859
Rp860
(dp861
g18
I-1051113060
sg19
S'(yearPredicate, enddate)'
p862
sg21
cdedupe.variables.datetime_predicates
yearPredicate
p863
sg23
g809
sbag0
(g233
g2
Ntp864
Rp865
(dp866
g18
I-1492147314
sg19
S'(monthPredicate, enddate)'
p867
sg21
cdedupe.variables.datetime_predicates
monthPredicate
p868
sg23
g809
sbag0
(g233
g2
Ntp869
Rp870
(dp871
g18
I-494097812
sg19
S'(dayPredicate, enddate)'
p872
sg21
cdedupe.variables.datetime_predicates
dayPredicate
p873
sg23
g809
sbag0
(g233
g2
Ntp874
Rp875
(dp876
g18
I-1195527361
sg19
S'(hourPredicate, enddate)'
p877
sg21
cdedupe.variables.datetime_predicates
hourPredicate
p878
sg23
g809
sbag0
(g233
g2
Ntp879
Rp880
(dp881
g18
I-48359263
sg19
S'(exclusiveMonthPredicate, enddate)'
p882
sg21
cdedupe.variables.datetime_predicates
exclusiveMonthPredicate
p883
sg23
g809
sbag0
(g233
g2
Ntp884
Rp885
(dp886
g18
I-578504549
sg19
S'(exclusiveDayPredicate, enddate)'
p887
sg21
cdedupe.variables.datetime_predicates
exclusiveDayPredicate
p888
sg23
g809
sbag0
(g233
g2
Ntp889
Rp890
(dp891
g18
I1879851399
sg19
S'(threeDayPredicate, enddate)'
p892
sg21
cdedupe.variables.datetime_predicates
threeDayPredicate
p893
sg23
g809
sbag0
(g233
g2
Ntp894
Rp895
(dp896
g18
I-2033709974
sg19
S'(exclusiveHourPredicate, enddate)'
p897
sg21
cdedupe.variables.datetime_predicates
exclusiveHourPredicate
p898
sg23
g809
sbasS'fuzzy'
p899
I01
sS'yearfirst'
p900
I00
sbasS'_variables'
p901
(lp902
g10
ag230
ag251
ag433
ag615
ag815
ag819
ag823
ag827
ag831
ag835
ag839
ag843
ag847
ag851
asS'_missing_field_indices'
p903
(lp904
sS'_derived_start'
p905
I15
sS'_interaction_indices'
p906
(lp907
sb.ccopy_reg
_reconstructor
p0
(crlr.lr
RegularizedLogisticRegression
p1
c__builtin__
object
p2
Ntp3
Rp4
(dp5
S'alpha'
p6
F0.01
sS'bias'
p7
cnumpy.core.multiarray
scalar
p8
(cnumpy
dtype
p9
(S'f8'
p10
I0
I1
tp11
Rp12
(I3
S'<'
p13
NNNI-1
I-1
I0
tp14
bS'\xb9\xb3K\xd5\xd2\xca\x0e\xc0'
p15
tp16
Rp17
sS'num_cores'
p18
I0
sS'cv'
p19
I3
sS'weights'
p20
cnumpy.core.multiarray
_reconstruct
p21
(cnumpy
ndarray
p22
(I0
tp23
S'b'
p24
tp25
Rp26
(I1
(L15L
tp27
g12
I00
S'\x87\xc9\xe9\x1cw\xee\x18\xc0(E+\x82\xf9<\xe6\xbe \x8f\xc3;\x1e~\xb1\xbf\x87\x9c\xd1\x82u;\xbf?P\x04AU\xf8\x7f\xcc\xbf;\x17\xc4$\r=\x1c@(E+\x82\xf9<\xe6\xbe;\x17\xc4$\r=\x1c@(E+\x82\xf9<\xe6\xbe(E+\x82\xf9<\xe6\xbe(E+\x82\xf9<\xe6\xbeX\xae7o#\xae\x1c\xc0(E+\x82\xf9<\xe6\xbe(E+\x82\xf9<\xe6\xbe(E+\x82\xf9<\xe6\xbe'
p28
tp29
bsb.(ccopy_reg
_reconstructor
p0
(cdedupe.predicates
CompoundPredicate
p1
c__builtin__
tuple
p2
(g0
(cdedupe.predicates
SimplePredicate
p3
c__builtin__
object
p4
Ntp5
Rp6
(dp7
S'_cached_hash'
p8
I-494097812
sS'__name__'
p9
S'(dayPredicate, enddate)'
p10
sS'func'
p11
cdedupe.variables.datetime_predicates
dayPredicate
p12
sS'field'
p13
S'enddate'
p14
sbg0
(cdedupe.predicates
TfidfNGramCanopyPredicate
p15
g4
Ntp16
Rp17
(dp18
S'threshold'
p19
F0.8
sg9
S'(0.8, title)'
p20
sg13
S'title'
p21
sbtp22
tp23
Rp24
(dp25
S'count'
p26
F615.0
sbg0
(g1
g2
(g0
(cdedupe.predicates
StringPredicate
p27
g4
Ntp28
Rp29
(dp30
g8
I1629619116
sg9
S'(firstIntegerPredicate, title)'
p31
sg11
cdedupe.predicates
firstIntegerPredicate
p32
sg13
g21
sbg0
(g27
g4
Ntp33
Rp34
(dp35
g8
I-1372890427
sg9
S'(sortedAcronym, title)'
p36
sg11
cdedupe.predicates
sortedAcronym
p37
sg13
g21
sbtp38
tp39
Rp40
(dp41
g26
F27.0
sbtp42
.